(dp1
I1
(lp2
I9
aI10
aI11
aI12
aI13
aI14
aI24
aI25
aI26
aI34
aI35
aI39
aI40
aI41
aI42
aI43
aI44
aI45
aI46
aI47
aI48
aI49
aI50
aI51
aI52
aI53
aI54
aI55
aI56
aI57
aI58
aI59
aI60
aI61
aI62
aI63
aI64
aI65
aI66
aI67
aI68
aI69
aI70
aI71
aI72
aI73
aI74
aI75
aI76
aI77
aI78
aI79
aI80
aI81
aI82
aI83
aI84
aI85
aI86
aI87
aI88
aI89
aI90
aI91
aI92
aI93
aI94
aI95
aI96
aI97
aI98
aI99
aI100
aI101
aI102
aI103
aI104
aI105
aI106
aI107
aI108
aI109
aI110
aI111
aI112
aI113
aI114
aI115
aI116
aI117
aI118
aI119
aI120
aI121
aI122
aI123
aI124
aI125
aI126
aI127
aI128
aI129
aI130
aI131
aI132
aI133
aI134
aI135
aI136
aI137
aI138
aI139
aI141
aI142
aI143
aI144
aI145
aI146
aI147
aI148
aI149
aI150
aI151
aI152
aI157
aI158
aI159
aI160
aI161
aI162
aI163
aI164
aI165
aI166
aI167
aI168
aI169
aI170
aI171
aI172
aI173
aI174
aI175
aI176
aI177
aI178
aI179
aI180
aI181
aI182
aI183
aI184
aI185
aI186
aI187
aI188
aI189
aI190
aI191
aI192
aI193
aI194
aI195
aI196
aI197
aI198
aI199
aI200
aI201
aI202
aI203
aI204
aI205
aI206
aI207
aI208
aI209
aI210
aI211
aI212
aI215
aI216
aI217
aI218
aI219
aI220
aI221
aI222
aI223
aI224
aI225
aI226
aI227
aI228
aI229
aI230
aI231
aI232
aI233
aI234
aI235
aI236
aI237
aI238
aI239
aI240
aI241
aI242
aI243
aI244
aI245
aI246
aI247
aI248
aI249
aI250
aI251
aI252
aI253
aI254
aI255
aI256
aI257
aI258
aI259
aI260
aI261
aI262
aI263
aI264
aI266
aI267
aI268
aI269
aI270
aI271
aI272
aI273
aI274
aI275
aI276
aI277
aI278
aI279
aI280
aI281
aI282
aI283
aI284
aI285
aI286
aI287
aI288
aI289
aI290
aI291
aI292
aI293
aI294
aI295
aI296
aI297
aI301
aI302
aI303
aI304
aI305
aI306
aI307
aI308
aI309
aI310
aI311
aI312
aI313
aI314
aI315
aI316
aI317
aI318
aI319
aI320
aI321
aI322
aI323
aI324
aI325
aI326
aI327
aI328
aI329
aI330
aI331
aI332
aI333
aI334
aI335
aI336
aI337
aI338
aI339
aI340
aI341
aI342
aI343
aI344
aI345
aI346
aI347
aI348
aI349
aI350
aI351
aI352
aI353
aI354
aI355
aI356
aI357
aI358
aI359
aI360
aI361
aI362
aI363
aI364
aI365
aI366
aI367
aI368
aI369
aI370
aI371
aI372
aI373
aI374
aI375
aI376
aI377
aI378
aI379
aI380
aI381
aI382
aI383
aI384
aI385
aI386
aI387
aI388
aI389
aI398
aI399
aI400
aI401
aI402
aI403
aI404
aI405
aI406
aI407
aI408
aI409
aI410
aI411
aI412
aI413
aI414
aI415
aI416
aI417
aI418
aI419
aI420
aI421
aI422
aI423
aI424
aI425
aI426
aI427
aI428
aI429
aI430
aI431
aI432
aI433
aI434
aI435
aI436
aI437
aI438
aI439
aI440
aI441
aI442
aI443
aI444
aI445
aI446
aI447
aI448
aI449
aI450
aI451
aI452
aI453
aI454
aI455
aI456
aI457
aI458
aI459
aI460
aI461
aI462
aI463
aI464
aI465
aI528
aI529
aI530
aI531
aI533
aI535
aI537
aI579
aI580
aI581
aI582
aI583
aI584
aI585
aI586
aI587
aI588
aI641
aI642
aI643
aI644
aI645
aI646
aI647
aI648
aI649
aI650
aI651
aI652
aI653
aI654
aI655
aI656
aI657
aI658
aI661
aI662
aI663
aI664
aI665
aI678
aI679
aI680
aI681
aI682
aI683
aI684
aI685
aI686
aI687
aI688
aI689
aI690
aI691
aI696
aI697
aI698
aI699
aI700
aI701
aI702
aI703
aI704
aI705
aI720
aI721
aI722
aI723
aI724
aI725
aI749
aI750
aI751
aI752
aI753
aI754
aI755
aI756
aI757
aI758
aI759
aI760
aI761
aI762
aI781
aI782
aI783
aI784
aI785
aI786
aI787
aI788
aI789
aI790
aI801
aI802
aI803
aI804
aI805
aI806
aI807
aI808
aI809
aI810
aI811
aI812
aI813
aI814
aI815
aI816
aI934
aI935
aI936
aI937
aI938
aI939
aI940
aI941
aI942
aI943
aI944
aI945
aI946
aI947
aI948
aI949
aI950
aI951
aI952
aI953
aI954
aI955
aI956
aI957
aI958
aI959
aI960
aI961
aI962
aI963
aI964
aI965
aI966
aI967
aI968
aI969
aI970
aI971
aI972
aI973
aI974
aI975
aI976
aI977
aI978
aI979
aI980
aI981
aI1097
aI1098
aI1099
aI1126
aI1127
aI1128
aI1129
aI1130
aI1131
aI1132
aI1133
aI1134
aI1135
aI1136
aI1137
aI1138
aI1142
aI1143
aI1144
aI1145
aI1146
aI1147
aI1148
aI1149
aI1150
aI1151
aI1152
aI1153
aI1154
aI1155
aI1156
aI1157
aI1159
aI1160
aI1161
aI1162
aI1181
aI1182
aI1183
aI1186
aI1187
aI1217
aI1238
aI1239
aI1240
aI1241
aI1242
aI1243
aI1244
aI1245
aI1246
aI1247
aI1248
aI1249
aI1250
aI1251
aI1305
aI1306
aI1307
aI1308
aI1309
aI1310
aI1311
aI1312
aI1313
aI1314
aI1315
aI1316
aI1317
aI1318
aI1319
aI1320
aI1321
aI1322
aI1323
aI1324
aI1325
aI1326
aI1327
aI1328
aI1329
aI1330
aI1331
aI1332
aI1333
aI1334
aI1335
aI1336
aI1337
aI1339
aI1340
aI1341
aI1342
aI1343
aI1344
aI1345
aI1346
aI1347
aI1348
aI1349
aI1350
aI1351
aI1352
aI1353
aI1363
aI1364
aI1365
aI1366
aI1367
aI1368
aI1369
aI1370
aI1371
aI1372
aI1373
aI1374
aI1375
aI1376
aI1377
aI1378
aI1379
aI1380
aI1381
aI1382
aI1383
aI1384
aI1385
aI1386
aI1398
aI1399
aI1400
aI1401
aI1402
aI1403
aI1404
aI1405
aI1406
aI1407
aI1408
aI1409
aI1410
aI1411
aI1412
aI1413
aI1414
aI1415
aI1416
aI1417
aI1418
aI1419
aI1420
aI1421
aI1422
aI1423
aI1424
aI1425
aI1426
aI1427
aI1428
aI1429
aI1430
aI1431
aI1432
aI1433
aI1434
aI1435
aI1436
aI1445
aI1446
aI1447
aI1448
aI1449
aI1450
aI1451
aI1452
aI1453
aI1454
aI1455
aI1469
aI1470
aI1471
aI1472
aI1473
aI1474
aI1475
aI1476
aI1477
aI1478
aI1479
aI1480
aI1481
aI1482
aI1483
aI1484
aI1485
aI1486
aI1487
aI1488
aI1489
aI1490
aI1491
aI1492
aI1493
aI1494
aI1495
aI1496
aI1497
aI1498
aI1583
aI1584
aI1586
aI1591
aI1592
aI1593
aI1595
aI1596
aI1598
aI1601
aI1602
aI1603
aI1617
aI1618
aI1619
aI1621
aI1622
aI1623
aI1624
aI1626
aI1627
aI1630
aI1631
aI1632
aI1636
aI1637
aI1638
aI1639
aI1640
aI1641
aI1642
aI1643
aI1644
aI1645
aI1646
aI1647
aI1666
aI1667
aI1668
aI1684
aI1685
aI1686
aI1687
aI1688
aI1689
aI1690
aI1691
aI1692
aI1693
aI1694
aI1695
aI1696
aI1697
aI1698
aI1699
aI1700
aI1701
aI1702
aI1703
aI1704
aI1742
aI1743
aI1744
aI1745
aI1746
aI1747
aI1748
aI1749
aI1750
aI1751
aI1752
aI1753
aI1754
aI1755
aI1756
aI1757
aI1758
aI1759
aI1760
aI1761
aI1762
aI1763
aI1764
aI1765
aI1766
aI1767
aI1768
aI1769
aI1770
aI1771
aI1772
aI1773
aI1774
aI1775
aI1776
aI1777
aI1778
aI1779
aI1780
aI1781
aI1782
aI1783
aI1784
aI1785
aI1786
aI1787
aI1788
aI1789
aI1790
aI1791
aI1792
aI1793
aI1794
aI1795
aI1806
aI1807
aI1808
aI1809
aI1810
aI1811
aI1815
aI1816
aI1817
aI1818
aI1819
aI1820
aI1824
aI1825
aI1826
aI1827
aI1828
aI1829
aI1830
aI1831
aI1833
aI1834
aI1835
aI1836
aI1837
aI1838
aI1839
aI1840
aI1849
aI1850
aI1851
aI1852
aI1853
aI1854
aI1855
aI1856
aI1857
aI1858
aI1859
aI1860
aI1870
aI1871
aI1872
aI1873
aI1874
aI1885
aI1886
aI1887
aI1888
aI1889
aI1890
aI1894
aI1895
aI1896
aI1897
aI1898
aI1899
aI1929
aI1930
aI1931
aI1932
aI1933
aI1934
aI1935
aI1938
aI1939
aI1940
aI1941
aI1942
aI1943
aI1944
aI1945
aI1946
aI1947
aI1954
aI1955
aI1956
aI1957
aI1958
aI1959
aI1960
aI1961
aI1962
aI1963
aI1964
aI1965
aI1966
aI1967
aI1968
aI1969
aI1970
aI1971
aI1972
aI1973
aI1974
aI2028
aI2029
aI2030
aI2031
aI2032
aI2057
aI2058
aI2059
aI2060
aI2064
aI2065
aI2066
aI2067
aI2068
aI2069
aI2070
aI2071
aI2072
aI2073
aI2074
aI2075
aI2076
aI2077
aI2078
aI2079
aI2080
aI2081
aI2082
aI2083
aI2084
aI2085
aI2086
aI2087
aI2088
aI2089
aI2090
aI2091
aI2092
aI2093
aI2094
aI2095
aI2096
aI2097
aI2098
aI2099
aI2100
aI2101
aI2102
aI2154
aI2155
aI2156
aI2159
aI2160
aI2161
aI2177
aI2178
aI2179
aI2180
aI2181
aI2182
aI2219
aI2220
aI2221
aI2222
aI2223
aI2224
aI2225
aI2226
aI2227
aI2228
aI2229
aI2230
aI2257
aI2258
aI2259
aI2260
aI2261
aI2262
aI2263
aI2264
aI2282
aI2283
aI2284
aI2285
aI2342
aI2343
aI2345
aI2350
aI2351
aI2352
aI2355
aI2356
aI2357
aI2358
aI2359
aI2360
aI2396
aI2400
aI2495
aI2496
aI2497
aI2498
aI2499
aI2500
aI2501
aI2502
aI2503
aI2504
aI2505
aI2506
aI2507
aI2508
aI2509
aI2510
aI2511
aI2512
aI2513
aI2514
aI2515
aI2516
aI2517
aI2518
aI2554
aI2555
aI2556
aI2557
aI2558
aI2559
aI2560
aI2561
aI2562
aI2563
aI2564
aI2565
aI2566
aI2567
aI2568
aI2569
aI2570
aI2571
aI2572
aI2573
aI2574
aI2575
aI2576
aI2577
aI2600
aI2602
aI2603
aI2605
aI2607
aI2609
aI2610
aI2611
aI2613
aI2614
aI2615
aI2616
aI2618
aI2619
aI2620
aI2624
aI2625
aI2627
aI2628
aI2629
aI2630
aI2631
aI2632
aI2633
aI2634
aI2635
aI2636
aI2637
aI2638
aI2639
aI2971
aI2972
aI2973
aI2974
aI2975
aI2976
aI2977
aI2978
aI2979
aI2980
aI2981
aI2982
aI2983
aI2984
aI2985
aI2986
aI2987
aI2988
aI2989
aI2990
aI2991
aI2992
aI2993
aI2994
aI2995
aI2996
aI2997
aI3001
aI3002
aI3003
aI3004
aI3005
aI3006
aI3042
aI3044
aI3046
aI3048
aI3050
aI3051
aI3054
aI3056
aI3058
aI3061
aI3064
aI3065
aI3067
aI3068
aI3069
aI3072
aI3075
aI3076
aI3077
aI3078
aI3079
aI3080
aI3082
aI3083
aI3084
aI3085
aI3086
aI3087
aI3088
aI3089
aI3092
aI3093
aI3095
aI3096
aI3097
aI3101
aI3102
aI3104
aI3105
aI3106
aI3107
aI3109
aI3111
aI3112
aI3113
aI3115
aI3116
aI3117
aI3118
aI3119
aI3120
aI3121
aI3122
aI3123
aI3124
aI3125
aI3126
aI3127
aI3128
aI3129
aI3130
aI3131
aI3132
aI3133
aI3134
aI3135
aI3136
aI3137
aI3138
aI3139
aI3140
aI3141
aI3142
aI3143
aI3144
aI3146
aI3149
aI3150
aI3151
aI3152
aI3153
aI3154
aI3155
aI3156
aI3157
aI3158
aI3159
aI3160
aI3161
aI3162
aI3163
aI3164
aI3165
aI3166
aI3167
aI3168
aI3169
aI3170
aI3171
aI3172
aI3173
aI3174
aI3175
aI3176
aI3177
aI3178
aI3179
aI3180
aI3181
aI3182
aI3183
aI3184
aI3185
aI3186
aI3187
aI3191
aI3192
aI3193
aI3194
aI3195
aI3196
aI3197
aI3198
aI3199
aI3203
aI3204
aI3205
aI3206
aI3207
aI3208
aI3211
aI3213
aI3217
aI3222
aI3224
aI3225
aI3260
aI3261
aI3262
aI3263
aI3264
aI3265
aI3266
aI3267
aI3268
aI3275
aI3276
aI3277
aI3278
aI3279
aI3280
aI3281
aI3282
aI3283
aI3285
aI3286
aI3300
aI3301
aI3302
aI3303
aI3304
aI3305
aI3318
aI3319
aI3320
aI3321
aI3322
aI3323
aI3351
aI3352
aI3353
aI3354
aI3355
aI3356
aI3357
aI3358
aI3359
aI3360
aI3361
aI3362
aI3363
aI3364
aI3367
aI3369
aI3370
aI3371
aI3372
aI3373
aI3374
aI3375
aI3376
aI3377
aI3378
aI3379
aI3380
aI3381
aI3382
aI3383
aI3384
aI3385
aI3386
aI3387
aI3388
aI3389
aI3390
aI3391
aI3392
aI3393
aI3394
aI3395
aI3396
aI3397
aI3398
aI3399
aI3400
aI3401
aI3402
aI3406
aI3407
aI3408
aI3409
aI3410
aI3411
aI3412
aI3413
aI3414
aI3415
aI3416
aI3417
aI3418
aI3419
aI3420
aI3421
aI3422
aI3423
aI3424
aI3425
aI3426
aI3427
aI3428
aI3429
aI3430
aI3431
aI3432
aI3433
aI3434
aI3435
aI3439
aI3440
aI3441
aI3442
aI3443
aI3444
aI3445
aI3446
aI3447
aI3448
aI3449
aI3450
aI3454
aI3455
aI3456
aI3457
aI3458
aI3459
aI3460
aI3461
aI3462
aI3469
aI3470
aI3471
aI3472
aI3473
aI3474
aI3475
aI3476
aI3477
aI3478
aI3479
aI3480
aI3481
aI3482
aI3483
aI3484
aI3485
aI3486
aI3487
aI3488
aI3489
aI3490
aI3491
aI3492
aI3493
aI3494
aI3495
aI3496
aI3497
aI3498
aI3499
aI3500
aI3501
aI3502
aI3503
aI3504
aI3505
aI3506
aI3507
aI3508
aI3509
aI3510
aI3511
aI3512
aI3513
aI3514
aI3515
aI3516
aI3517
aI3518
aI3519
aI3520
aI3521
aI3522
aI3523
aI3524
aI3525
aI3526
aI3527
aI3528
aI3529
aI3530
aI3531
aI3532
aI3533
aI3534
aI3535
aI3536
aI3537
aI3538
aI3539
aI3540
aI3541
aI3542
aI3543
aI3544
aI3545
aI3546
aI3547
aI3548
aI3549
aI3550
aI3551
aI3552
aI3553
aI3554
aI3555
aI3556
aI3557
aI3558
aI3559
aI3560
aI3561
aI3562
aI3563
aI3564
aI3565
aI3566
aI3567
aI3568
aI3569
aI3570
aI3571
aI3572
aI3573
aI3574
aI3575
aI3576
aI3577
aI3578
aI3579
aI3580
aI3581
aI3582
aI3583
aI3584
aI3585
aI3586
aI3587
aI3588
aI3589
aI3590
aI3591
aI3592
aI3593
aI3594
aI3595
aI3596
aI3597
aI3598
aI3599
aI3600
aI3601
aI3602
aI3603
aI3604
aI3605
aI3607
aI3608
aI3609
aI3610
aI3611
aI3612
aI3613
aI3614
aI3615
aI3616
aI3617
aI3618
aI3619
aI3622
aI3623
aI3624
aI3625
aI3626
aI3627
aI3628
aI3629
aI3630
aI3631
aI3632
aI3633
aI3634
aI3635
aI3636
aI3637
aI3638
aI3639
aI3640
aI3641
aI3642
aI3643
aI3644
aI3645
aI3646
aI3647
aI3648
aI3649
aI3650
aI3651
aI3652
aI3653
aI3654
aI3655
aI3656
aI3657
aI3658
aI3659
aI3660
aI3661
aI3662
aI3663
aI3664
aI3665
aI3666
aI3667
aI3668
aI3669
aI3670
aI3671
aI3672
aI3673
aI3674
aI3675
aI3676
aI3677
aI3678
aI3679
aI3680
aI3681
aI3682
aI3683
aI3684
aI3685
aI3686
aI3687
aI3688
aI3689
aI3690
aI3691
aI3692
aI3693
aI3694
aI3695
aI3696
aI3697
aI3698
aI3699
aI3700
aI3701
aI3702
aI3703
aI3704
aI3705
aI3706
aI3707
aI3708
aI3709
aI3710
aI3711
aI3712
aI3713
aI3714
aI3715
aI3716
aI3717
aI3718
aI3719
aI3720
aI3721
aI3722
aI3723
aI3724
aI3725
aI3726
aI3727
aI3728
aI3729
aI3730
aI3731
aI3732
aI3733
aI3734
aI3735
aI3736
aI3737
aI3738
aI3739
aI3740
aI3741
aI3742
aI3743
aI3744
aI3745
aI3746
aI3747
aI3749
aI3750
aI3752
aI3753
aI3754
aI3755
aI3756
aI3757
aI3758
aI3759
aI3760
aI3761
aI3762
aI3763
aI3764
aI3765
aI3766
aI3767
aI3768
aI3769
aI3774
aI3775
aI3776
aI3777
aI3778
aI3779
aI3780
aI3781
aI3782
aI3799
aI3800
aI3801
aI3802
aI3803
aI3804
aI3805
aI3806
aI3807
aI3811
aI3812
aI3813
aI3814
aI3815
aI3817
aI3818
aI3819
aI3820
aI3821
aI3822
aI3823
aI3824
aI3825
aI3826
aI3827
aI3828
aI3829
aI3830
aI3831
aI3832
aI3834
aI3835
aI3836
aI3837
aI3839
aI3844
aI3848
aI3849
aI3852
aI3863
aI3864
aI3865
aI3866
aI3867
aI3868
aI3871
aI3872
aI3873
aI3874
aI3875
aI3876
aI3877
aI3916
aI3937
aI3957
aI4060
aI4061
aI4062
aI4107
aI4108
aI4109
aI4110
aI4111
aI4112
aI4113
aI4114
aI4115
aI4116
aI4117
aI4118
aI4123
aI4125
aI4127
aI4128
aI4129
aI4136
aI4166
aI4167
aI4168
aI4241
aI4242
aI4243
aI4244
aI4245
aI4246
aI4247
aI4248
aI4249
aI4250
aI4251
aI4252
aI4253
aI4254
aI4255
aI4256
aI4257
aI4258
aI4269
aI4270
aI4280
aI4281
aI4282
aI4283
aI4284
aI4285
aI4286
aI4287
aI4288
aI4289
aI4290
aI4291
aI4292
aI4293
aI4294
aI4295
aI4296
aI4297
aI4298
aI4299
aI4300
aI4301
aI4302
aI4303
aI4448
aI4449
aI4450
aI4451
aI4452
aI4453
aI4454
aI4455
aI4456
aI4457
aI4458
aI4459
aI4460
aI4461
aI4477
aI4478
aI4479
aI4509
aI4510
aI4511
aI4512
aI4584
aI4586
aI4587
aI4588
aI4589
aI4590
aI4591
aI4592
aI4593
aI4594
aI4595
aI4596
aI4597
aI4598
aI4599
aI4600
aI4601
aI4602
aI4603
aI4604
aI4605
aI4647
aI4648
aI4649
aI4650
aI4651
aI4652
aI4653
aI4654
aI4655
aI4656
aI4657
aI4658
aI4660
aI4661
aI4662
aI4663
aI4664
aI4665
aI4666
aI4667
aI4668
aI4669
aI4670
aI4671
aI4672
aI4673
aI4674
aI4675
aI4676
aI4677
aI4678
aI4679
aI4680
aI4681
aI4682
aI4683
aI4684
aI4685
aI4686
aI4687
aI4688
aI4692
aI4693
aI4694
aI4696
aI4698
aI4701
aI4702
aI4703
aI4722
aI4723
aI4724
aI4725
aI4726
aI4730
aI4732
aI4733
aI4734
aI4735
aI4736
aI4737
aI4738
aI4739
aI4740
aI4741
aI4742
aI4743
aI4745
aI4746
aI4747
aI4748
aI4749
aI4750
aI4751
aI4752
aI4753
aI4754
aI4755
aI4756
aI4758
aI4759
aI4760
aI4761
aI4762
aI4763
aI4764
aI4765
aI4766
aI4767
aI4768
aI4769
aI4770
aI4771
aI4772
aI4777
aI4787
aI4788
aI4790
aI4791
aI4792
aI4793
aI4794
aI4795
aI4796
aI4797
aI4798
aI4799
aI4800
aI4801
aI4803
aI4805
aI4807
aI4808
aI4809
aI4810
aI4812
aI4815
aI4816
aI4817
aI4818
aI4819
aI4820
aI4824
aI4825
aI4826
aI4827
aI4829
aI4830
aI4831
aI4832
aI4833
aI4834
aI4835
aI4836
aI4837
aI4838
aI4839
aI4841
aI4843
aI4844
aI4845
aI4846
aI4847
aI4848
aI4850
aI4851
aI4852
aI4853
aI4854
aI4855
aI4856
aI4857
aI4862
aI4863
aI4864
aI4865
aI4866
aI4867
aI4868
aI4869
aI4870
aI4871
aI4872
aI4873
aI4874
aI4893
aI4894
aI4895
aI4896
aI4897
aI4898
aI4899
aI4900
aI4902
aI4903
aI4904
aI4905
aI4906
aI4907
aI4908
aI4911
aI4912
aI4913
aI4914
aI4915
aI4916
aI4917
aI4918
aI4921
aI4922
aI4923
aI4924
aI4925
aI4926
aI4927
aI4928
aI4929
aI4932
aI4933
aI4934
aI4935
aI4936
aI4937
aI4938
aI4939
aI4940
aI4941
aI4942
aI4943
aI4944
aI4945
aI4946
aI4947
aI4948
aI4949
aI4950
aI4951
aI4952
aI4953
aI4954
aI4955
aI4956
aI4957
aI4958
aI4959
aI4960
aI4961
aI4962
aI4963
aI4964
aI4965
aI4966
aI4967
aI4968
aI4969
aI4970
aI4971
aI4972
aI4973
aI4974
aI4975
aI4976
aI4977
aI4978
aI4979
aI4980
aI4981
aI4982
aI4983
aI4984
aI4985
aI4986
aI4987
aI4988
aI4989
aI4990
aI4991
aI4992
aI4993
aI4994
aI4995
aI4996
aI4997
aI4998
aI4999
aI5000
aI5001
aI5002
aI5003
aI5004
aI5005
aI5006
aI5007
aI5008
aI5009
aI5010
aI5011
aI5012
aI5013
aI5014
aI5015
aI5016
aI5017
aI5018
aI5019
aI5020
aI5021
aI5022
aI5023
aI5024
aI5025
aI5026
aI5027
aI5028
aI5029
aI5030
aI5031
aI5032
aI5033
aI5034
aI5035
aI5036
aI5037
aI5038
aI5039
aI5040
aI5041
aI5042
aI5043
aI5044
aI5045
aI5046
aI5047
aI5048
aI5049
aI5050
aI5051
aI5052
aI5053
aI5054
aI5101
aI5102
aI5103
aI5104
aI5105
aI5106
aI5107
aI5108
aI5109
aI5110
aI5111
aI5112
aI5113
aI5114
aI5115
aI5116
aI5117
aI5118
aI5119
aI5120
aI5121
aI5122
aI5123
aI5124
aI5125
aI5126
aI5127
aI5128
aI5129
aI5130
aI5131
aI5132
aI5133
aI5134
aI5135
aI5136
aI5137
aI5138
aI5139
aI5140
aI5141
aI5142
aI5162
aI5163
aI5184
aI5185
aI5306
aI5308
aI5684
aI5685
aI5689
aI5799
aI5800
aI5801
aI5802
aI5803
aI5804
aI5806
aI5807
aI5812
aI5813
aI5814
aI5815
aI5816
aI5817
aI5818
aI5822
aI5823
aI5824
aI5835
aI5836
aI5837
aI5838
aI5839
aI5840
aI5841
aI5842
aI5843
aI5844
aI5845
aI5846
aI5847
aI5848
aI5849
aI5850
aI5851
aI5852
aI5853
aI5854
aI5855
aI5856
aI5857
aI5858
aI5859
aI5860
aI5861
aI5862
aI5863
aI5864
aI5870
aI5871
aI5872
aI5873
aI5874
aI5875
aI5876
aI5877
aI5878
aI5879
aI5880
aI5881
aI5882
aI5883
aI5884
aI5886
aI5887
aI5889
aI5890
aI5891
aI5892
aI5893
aI5894
aI5895
aI5932
aI5933
aI5934
aI5935
aI5936
aI5937
aI5967
aI5968
aI5987
aI5988
aI5989
aI5990
aI6003
aI6004
aI6005
aI6006
aI6007
aI6008
aI6037
aI6038
aI6039
aI6040
aI6041
aI6042
aI6043
aI6044
aI6045
aI6046
aI6047
aI6048
aI6049
aI6050
aI6051
aI6052
aI6053
aI6054
aI6055
aI6056
aI6057
aI6058
aI6059
aI6060
aI6061
aI6062
aI6063
aI6079
aI6080
aI6081
aI6082
aI6083
aI6084
aI6085
aI6086
aI6087
aI6088
aI6089
aI6090
aI6091
aI6092
aI6093
aI6094
aI6095
aI6096
aI6097
aI6098
aI6099
aI6100
aI6101
aI6102
aI6103
aI6104
aI6105
aI6106
aI6107
aI6108
aI6109
aI6110
aI6111
aI6112
aI6113
aI6114
aI6115
aI6116
aI6117
aI6118
aI6119
aI6120
aI6121
aI6122
aI6123
aI6124
aI6125
aI6126
aI6127
aI6128
aI6129
aI6130
aI6131
aI6132
aI6133
aI6134
aI6135
aI6136
aI6137
aI6138
aI6139
aI6140
aI6141
aI6142
aI6143
aI6144
aI6145
aI6146
aI6147
aI6148
aI6149
aI6150
aI6151
aI6152
aI6153
aI6154
aI6155
aI6156
aI6157
aI6158
aI6159
aI6160
aI6161
aI6162
aI6163
aI6164
aI6165
aI6166
aI6167
aI6168
aI6169
aI6170
aI6171
aI6175
aI6176
aI6177
aI6178
aI6179
aI6180
aI6181
aI6182
aI6183
aI6184
aI6185
aI6186
aI6187
aI6188
aI6189
aI6190
aI6191
aI6192
aI6193
aI6194
aI6195
aI6196
aI6197
aI6198
aI6199
aI6200
aI6201
aI6205
aI6206
aI6207
aI6208
aI6209
aI6210
aI6211
aI6212
aI6213
aI6214
aI6215
aI6216
aI6217
aI6218
aI6219
aI6220
aI6221
aI6222
aI6223
aI6224
aI6225
aI6226
aI6227
aI6228
aI6229
aI6230
aI6231
aI6232
aI6233
aI6234
aI6235
aI6236
aI6237
aI6238
aI6239
aI6240
aI6241
aI6242
aI6243
aI6244
aI6245
aI6246
aI6247
aI6248
aI6249
aI6250
aI6251
aI6252
aI6253
aI6254
aI6255
aI6256
aI6257
aI6258
aI6259
aI6260
aI6261
aI6262
aI6263
aI6264
aI6265
aI6266
aI6267
aI6268
aI6269
aI6270
aI6271
aI6272
aI6273
aI6274
aI6275
aI6276
aI6277
aI6278
aI6279
aI6280
aI6281
aI6282
aI6283
aI6284
aI6285
aI6286
aI6287
aI6288
aI6289
aI6290
aI6291
aI6321
aI6322
aI6323
aI6324
aI6325
aI6326
aI6327
aI6328
aI6329
aI6330
aI6331
aI6332
aI6333
aI6334
aI6335
aI6336
aI6337
aI6338
aI6346
aI6350
aI6351
aI6353
aI6354
aI6355
aI6356
aI6357
aI6358
aI6360
aI6361
aI6362
aI6363
aI6364
aI6365
aI6366
aI6367
aI6368
aI6369
aI6370
aI6371
aI6372
aI6373
aI6374
aI6375
aI6376
aI6377
aI6378
aI6379
aI6380
aI6419
aI6420
aI6427
aI6428
aI6440
aI6441
aI6442
aI6443
aI6445
aI6446
aI6451
aI6452
aI6453
aI6454
aI6455
aI6456
aI6457
aI6458
aI6459
aI6878
aI6881
aI6883
aI6884
aI6885
aI6886
aI6887
aI6888
aI6889
aI6890
aI6893
aI6894
aI6895
aI6896
aI6897
aI6900
aI6901
aI6902
aI6904
aI6905
aI6906
aI6907
aI6908
aI6909
aI6910
aI6912
aI6913
aI6914
aI6916
aI6918
aI6919
aI6920
aI6921
aI6922
aI6923
aI6924
aI6925
aI6926
aI6927
aI6928
aI6929
aI6930
aI6931
aI6932
aI6933
aI6934
aI6935
aI6936
aI6937
aI6938
aI6940
aI6941
aI6942
aI6943
aI6944
aI6945
aI6946
aI6948
aI6949
aI6950
aI6951
aI6952
aI6953
aI6954
aI6955
aI6956
aI6957
aI6958
aI6959
aI6960
aI6961
aI6962
aI6963
aI6964
aI6965
aI6967
aI6968
aI6969
aI6970
aI6971
aI6972
aI6973
aI6974
aI6975
aI6976
aI6977
aI6978
aI6979
aI6980
aI6981
aI6982
aI6983
aI6984
aI6985
aI6986
aI6987
aI6988
aI6989
aI6990
aI6991
aI6992
aI6993
aI6994
aI6995
aI6996
aI6997
aI6998
aI6999
aI7000
aI7001
aI7002
aI7003
aI7004
aI7005
aI7006
aI7007
aI7008
aI7009
aI7010
aI7011
aI7012
aI7013
aI7014
aI7015
aI7016
aI7017
aI7018
aI7019
aI7020
aI7021
aI7022
aI7023
aI7024
aI7025
aI7026
aI7027
aI7028
aI7029
aI7032
aI7033
aI7034
aI7035
aI7036
aI7037
aI7038
aI7039
aI7040
aI7041
aI7042
aI7043
aI7044
aI7045
aI7046
aI7047
aI7048
aI7049
aI7050
aI7051
aI7052
aI7053
aI7054
aI7056
aI7057
aI7058
aI7059
aI7060
aI7061
aI7062
aI7063
aI7064
aI7065
aI7066
aI7067
aI7068
aI7069
aI7070
aI7071
aI7072
aI7073
aI7074
aI7075
aI7076
aI7078
aI7079
aI7080
aI7081
aI7082
aI7083
aI7084
aI7085
aI7086
aI7087
aI7088
aI7089
aI7090
aI7091
aI7092
aI7093
aI7094
aI7095
aI7096
aI7097
aI7098
aI7099
aI7100
aI7101
aI7102
aI7103
aI7107
aI7108
aI7109
aI7110
aI7111
aI7112
aI7113
aI7114
aI7115
aI7116
aI7118
aI7119
aI7120
aI7121
aI7122
aI7123
aI7124
aI7125
aI7126
aI7127
aI7128
aI7129
aI7130
aI7131
aI7132
aI7133
aI7134
aI7135
aI7137
aI7138
aI7139
aI7140
aI7141
aI7142
aI7143
aI7144
aI7145
aI7146
aI7147
aI7148
aI7149
aI7150
aI7151
aI7152
aI7153
aI7154
aI7155
aI7156
aI7157
aI7158
aI7159
aI7160
aI7161
aI7162
aI7163
aI7164
aI7165
aI7166
aI7167
aI7168
aI7169
aI7170
aI7171
aI7172
aI7173
aI7174
aI7175
aI7176
aI7177
aI7178
aI7179
aI7180
aI7181
aI7182
aI7183
aI7184
aI7185
aI7186
aI7187
aI7188
aI7189
aI7190
aI7191
aI7192
aI7193
aI7194
aI7195
aI7196
aI7197
aI7198
aI7199
aI7200
aI7201
aI7202
aI7203
aI7204
aI7205
aI7206
aI7207
aI7208
aI7209
aI7210
aI7211
aI7212
aI7213
aI7214
aI7215
aI7216
aI7217
aI7218
aI7219
aI7220
aI7221
aI7222
aI7223
aI7224
aI7225
aI7226
aI7227
aI7228
aI7229
aI7230
aI7231
aI7232
aI7233
aI7234
aI7235
aI7236
aI7237
aI7238
aI7239
aI7240
aI7241
aI7243
aI7244
aI7245
aI7248
aI7249
aI7250
aI7251
aI7252
aI7253
aI7254
aI7255
aI7256
aI7257
aI7258
aI7259
aI7260
aI7261
aI7262
aI7267
aI7268
aI7269
aI7271
aI7273
aI7274
aI7276
aI7277
aI7278
aI7279
aI7280
aI7281
aI7282
aI7283
aI7284
aI7285
aI7286
aI7287
aI7288
aI7289
aI7290
aI7291
aI7292
aI7293
aI7294
aI7295
aI7296
aI7297
aI7298
aI7299
aI7300
aI7301
aI7302
aI7304
aI7305
aI7306
aI7307
aI7308
aI7309
aI7310
aI7311
aI7312
aI7313
aI7314
aI7315
aI7316
aI7317
aI7318
aI7319
aI7320
aI7321
aI7322
aI7323
aI7324
aI7325
aI7327
aI7328
aI7329
aI7330
aI7331
aI7332
aI7333
aI7334
aI7335
aI7336
aI7337
aI7338
aI7339
aI7340
aI7341
aI7342
aI7343
aI7344
aI7345
aI7346
aI7347
aI7348
aI7349
aI7350
aI7351
aI7352
aI7353
aI7354
aI7355
aI7356
aI7357
aI7358
aI7359
aI7360
aI7361
aI7366
aI7367
aI7368
aI7369
aI7370
aI7371
aI7372
aI7373
aI7374
aI7375
aI7376
aI7377
aI7378
aI7379
aI7380
aI7381
aI7382
aI7383
aI7384
aI7385
aI7386
aI7387
aI7388
aI7389
aI7390
aI7391
aI7392
aI7393
aI7394
aI7395
aI7396
aI7397
aI7398
aI7399
aI7400
aI7401
aI7402
aI7403
aI7404
aI7405
aI7406
aI7407
aI7408
aI7409
aI7410
aI7411
aI7412
aI7413
aI7414
aI7415
aI7416
aI7417
aI7418
aI7419
aI7420
aI7421
aI7422
aI7423
aI7424
aI7425
aI7426
aI7427
aI7428
aI7429
aI7430
aI7431
aI7432
aI7433
aI7434
aI7435
aI7436
aI7437
aI7438
aI7439
aI7440
aI7441
aI7442
aI7443
aI7444
aI7445
aI7446
aI7447
aI7448
aI7449
aI7450
aI7451
aI7452
aI7453
aI7454
aI7455
aI7456
aI7457
aI7458
aI7459
aI7460
aI7461
aI7462
aI7463
aI7464
aI7465
aI7466
aI7467
aI7468
aI7469
aI7470
aI7471
aI7472
aI7473
aI7474
aI7600
aI7601
aI7602
aI7618
aI7622
aI7624
aI7627
aI7628
aI7629
aI7630
aI7631
aI7632
aI7633
aI7634
aI7635
aI7636
aI7637
aI7638
aI7639
aI7640
aI7641
aI7642
aI7643
aI7644
aI7645
aI7646
aI7647
aI7648
aI7649
aI7650
aI7651
aI7652
aI7653
aI7654
aI7655
aI7656
aI7657
aI7658
aI7659
aI7660
aI7661
aI7662
aI7663
aI7664
aI7665
aI7666
aI7667
aI7668
aI7669
aI7670
aI7671
aI7672
aI7673
aI7674
aI7675
aI7676
aI7677
aI7678
aI7679
aI7680
aI7681
aI7682
aI7683
aI7684
aI7685
aI7686
aI7687
aI7688
aI7689
aI7690
aI7691
aI7692
aI7693
aI7694
aI7695
aI7696
aI7697
aI7698
aI7699
aI7700
aI7701
aI7702
aI7703
aI7704
aI7705
aI7706
aI7707
aI7708
aI7709
aI7710
aI7711
aI7712
aI7765
aI7766
aI7767
aI7768
aI7769
aI7770
aI7771
aI7772
aI7773
aI7774
aI7775
aI7776
aI7777
aI7778
aI7779
aI7780
aI7781
aI7782
aI7783
aI7784
aI7785
aI7786
aI7787
aI7788
aI7795
aI7796
aI7797
aI7804
aI7805
aI7806
aI7807
aI7808
aI7809
aI7810
aI7811
aI7812
aI7813
aI7814
aI7815
aI7816
aI7817
aI7818
aI7819
aI7820
aI7821
aI7822
aI7823
aI7824
aI7825
aI7826
aI7827
aI7828
aI7829
aI7830
aI7831
aI7832
aI7833
aI7834
aI7835
aI7836
aI7837
aI7838
aI7839
aI7840
aI7841
aI7842
aI7843
aI7844
aI7845
aI7846
aI7847
aI7848
aI7849
aI7850
aI7851
aI7852
aI7853
aI7854
aI7855
aI7856
aI7857
aI7858
aI7889
aI8057
aI8058
aI8059
aI8060
aI8061
aI8062
aI8063
aI8064
aI8065
aI8066
aI8067
aI8068
aI8069
aI8070
aI8071
aI8072
aI8073
aI8074
aI8075
aI8076
aI8077
aI8078
aI8079
aI8080
aI8081
aI8082
aI8083
aI8084
aI8085
aI8086
aI8087
aI8088
aI8089
aI8090
aI8091
aI8092
aI8182
aI8290
aI8294
aI8540
aI8791
aI8792
aI8875
aI8876
aI8877
aI8878
aI8879
aI8880
aI8881
aI8882
aI8883
aI8884
aI8885
aI8886
aI8887
aI8888
aI8889
aI8890
aI8891
aI8892
aI8893
aI8894
aI8895
aI8896
aI8897
aI8898
aI8979
aI8980
aI8981
aI8982
aI8983
aI8984
aI8985
aI8986
aI8988
aI8989
aI8990
aI8991
aI8992
aI8993
aI8994
aI8995
aI8996
aI8997
aI8998
aI8999
aI9000
aI9001
aI9002
aI9003
aI9004
aI9005
aI9006
aI9007
aI9008
aI9009
aI9010
aI9011
aI9012
aI9013
aI9014
aI9015
aI9016
aI9017
aI9018
aI9019
aI9020
aI9021
aI9022
aI9023
aI9024
aI9025
aI9026
aI9027
aI9028
aI9029
aI9030
aI9039
aI9043
aI9046
aI9057
aI9060
aI9063
aI9081
aI9085
aI9086
aI9087
aI9112
aI9113
aI9114
aI9115
aI9116
aI9117
aI9118
aI9119
aI9120
aI9121
aI9122
aI9123
aI9124
aI9125
aI9126
aI9127
aI9128
aI9129
aI9130
aI9131
aI9132
aI9133
aI9134
aI9135
aI9136
aI9137
aI9138
aI9139
aI9140
aI9141
aI9142
aI9143
aI9144
aI9161
aI9162
aI9163
aI9164
aI9185
aI9186
aI9187
aI9190
aI9191
aI9192
aI9193
aI9194
aI9195
aI9196
aI9197
aI9198
aI9199
aI9200
aI9201
aI9202
aI9203
aI9204
aI9205
aI9206
aI9207
aI9208
aI9209
aI9210
aI9211
aI9212
aI9213
aI9215
aI9216
aI9217
aI9218
aI9220
aI9221
aI9225
aI9226
aI9227
aI9238
aI9240
aI9241
aI9245
aI9246
aI9247
aI9252
aI9253
aI9254
aI9258
aI9260
aI9261
aI9268
aI9270
aI9271
aI9286
aI9289
aI9290
aI9394
aI9395
aI9401
aI9404
aI9410
aI9429
aI9431
aI9491
aI9492
aI9493
aI9495
aI9496
aI9497
aI9498
aI9499
aI9500
aI9507
aI9508
aI9509
aI9510
aI9511
aI9617
aI9618
aI9621
aI9729
aI9730
aI9731
aI9732
aI9734
aI9736
aI9741
aI10116
aI10117
aI10118
aI10119
aI10120
aI10123
aI10125
aI10126
aI10180
aI10181
aI10182
aI10185
aI10194
aI10195
aI10196
aI10209
aI10210
aI10211
aI10212
aI10213
aI10597
aI10598
aI10599
aI10600
aI10601
aI10602
aI10603
aI10604
aI10606
aI10608
aI10609
aI10610
aI10611
aI10612
aI10613
aI10614
aI10615
aI10616
aI10617
aI10626
aI10628
aI10638
aI10642
aI10649
aI10650
aI10800
aI10801
aI10802
aI10803
aI10804
aI10805
aI10821
aI10822
aI10823
aI10830
aI10831
aI10832
aI10848
aI10849
aI10850
aI10851
aI10852
aI10853
aI10857
aI10864
aI10865
aI10866
aI10878
aI10879
aI10880
aI10905
aI10961
aI10962
aI10963
aI10964
aI10966
aI10967
aI10968
aI10969
aI10970
aI10971
aI10972
aI10973
aI10974
aI10975
aI10976
aI10977
aI10978
aI10979
aI10980
aI11018
aI11093
aI11133
aI11156
aI11157
aI11158
aI11159
aI11160
aI11161
aI11162
aI11163
aI11164
aI11168
aI11170
aI11171
aI11172
aI11173
aI11174
aI11175
aI11176
aI11177
aI11178
aI11179
aI11180
aI11181
aI11182
aI11183
aI11184
aI11185
aI11186
aI11187
aI11188
aI11189
aI11190
aI11191
aI11192
aI11193
aI11194
aI11195
aI11196
aI11197
aI11198
aI11199
aI11200
aI11201
aI11269
aI11274
aI11275
aI11440
aI11441
aI11442
aI11446
aI11447
aI11448
aI11451
aI11452
aI11453
aI11454
aI11455
aI11456
aI11458
aI11459
aI11460
aI11462
aI11463
aI11464
aI11465
aI11466
aI11467
aI11468
aI11469
aI11470
aI11472
aI11473
aI11474
aI11475
aI11476
aI11477
aI11507
aI11510
aI11512
aI11514
aI11517
aI11522
aI11524
aI11525
aI11529
aI11531
aI11537
aI11540
aI11606
aI11619
aI11620
aI11621
aI11623
aI11624
aI11625
aI11657
aI11658
aI11660
aI11662
aI11664
aI11666
aI11669
aI11671
aI11678
aI11794
aI11799
aI11800
aI11803
aI11804
aI11805
aI11806
aI11809
aI11814
aI11817
aI11820
aI11823
aI11824
aI11825
aI11826
aI11829
aI11832
aI11835
aI11837
aI11847
aI11851
aI11852
aI11853
aI11854
aI11855
aI11856
aI11857
aI11858
aI11859
aI11860
aI11861
aI11862
aI11863
aI11864
aI11865
aI11866
aI11867
aI11868
aI11869
aI11870
aI11872
aI11874
aI11906
aI11909
aI11916
aI11921
aI11923
aI11944
aI11945
aI11946
aI11947
aI11948
aI11949
aI11950
aI11960
aI11961
aI11962
aI11965
aI11969
aI11970
aI11971
aI11977
aI11983
aI11984
aI11985
aI11990
aI11991
aI11992
aI11998
aI11999
aI12000
aI12002
aI12003
aI12004
aI12005
aI12006
aI12007
aI12008
aI12009
aI12010
aI12011
aI12012
aI12013
aI12080
aI12470
aI12471
aI12472
aI12474
aI12475
aI12476
aI12480
aI12483
aI12485
aI12486
aI12488
aI12489
aI12490
aI12492
aI12493
aI12494
aI12495
aI12496
aI12498
aI12499
aI12501
aI12502
aI12503
aI12504
aI12505
aI12507
aI12510
aI12511
aI12513
aI12514
aI12516
aI12517
aI12621
aI12656
aI12663
aI12726
aI12756
aI12757
aI12823
aI12832
aI12839
aI12846
aI12858
aI12859
aI12867
aI12868
aI12881
aI12894
aI12895
aI12967
aI13005
aI13038
aI13087
aI13092
aI13093
aI13094
aI13105
aI13120
aI13122
aI13124
aI13292
aI13307
aI13311
aI13312
aI13371
aI13372
aI13377
aI13384
aI13405
aI13406
aI13425
aI13432
aI13434
aI13435
aI13437
aI13459
aI13461
aI13469
aI13470
aI13471
aI13472
aI13482
aI13483
aI13493
aI13505
aI13510
aI13529
aI13530
aI13531
aI13533
aI13534
aI13535
aI13542
aI13545
aI13546
aI13547
aI13550
aI13551
aI13552
aI13553
aI13557
aI13558
aI13562
aI13565
aI13566
aI13567
aI13568
aI13569
aI13570
aI13571
aI13572
aI13573
aI13574
aI13575
aI13576
aI13577
aI13578
aI13580
aI13581
aI13582
aI13583
aI13587
aI13590
aI13591
aI13592
aI13594
aI13595
aI13596
aI13598
aI13599
aI13600
aI13601
aI13602
aI13603
aI13604
aI13605
aI13606
aI13607
aI13608
aI13609
aI13610
aI13614
aI13615
aI13616
aI13620
aI13621
aI13622
aI13623
aI13624
aI13626
aI13633
aI13634
aI13635
aI13636
aI13647
aI13648
aI13650
aI13651
aI13659
aI13660
aI13661
aI13665
aI13668
aI13673
aI13676
aI13684
aI13687
aI13688
aI13689
aI13745
aI13746
aI13747
aI13748
aI13749
aI13752
aI13753
aI13754
aI13755
aI13756
aI13757
aI13758
aI13764
aI13765
aI13766
aI13767
aI13769
aI13770
aI13772
aI13773
aI13778
aI13785
aI13787
aI13788
aI13789
aI13791
aI13811
aI13817
aI13825
aI13826
aI13827
aI13828
aI13829
aI13830
aI13831
aI13832
aI13833
aI13834
aI14045
aI14046
aI14047
aI14048
aI14049
aI14050
aI14136
aI14390
aI14391
aI14392
aI14393
aI14394
aI14395
aI14396
aI14397
aI14405
aI14406
aI14407
aI14408
aI14409
aI14410
aI14423
aI14424
aI14425
aI14429
aI14430
aI14431
aI14432
aI14433
aI14434
aI14435
aI14436
aI14437
aI14438
aI14439
aI14440
aI14441
aI14442
aI14443
aI14444
aI14445
aI14446
aI14447
aI14448
aI14449
aI14450
aI14451
aI14452
aI14455
aI14456
aI14482
aI14483
aI14484
aI14485
aI14486
aI14487
aI14488
aI14489
aI14490
aI14491
aI14492
aI14493
aI14494
aI14495
aI14589
aI14590
aI14591
aI14592
aI14593
aI14594
aI14597
aI14598
aI14599
aI14603
aI14604
aI14605
aI14625
aI14626
aI14627
aI14628
aI14629
aI14630
aI14631
aI14632
aI14633
aI14634
aI14635
aI14636
aI14806
aI14807
aI14808
aI14809
aI14810
aI14811
aI14812
aI14813
aI14814
aI14815
aI14816
aI14817
aI15081
aI15082
aI15083
aI15084
aI15085
aI15086
aI15471
aI15566
aI15582
aI15859
aI15860
aI15861
aI15862
aI15863
aI15864
aI15865
aI15866
aI15867
aI15868
aI15869
aI15870
aI15871
aI15872
aI15873
aI16045
aI16046
aI16048
aI16049
aI16053
aI16054
aI16055
aI16056
aI16057
aI16059
aI16060
aI16061
aI16084
aI16085
aI16086
aI16087
aI16088
aI16089
aI16090
aI16091
aI16093
aI16106
aI16107
aI16108
aI16109
aI16110
aI16112
aI16114
aI16115
aI16116
aI16119
aI16120
aI16127
aI16128
aI16129
aI16131
aI16132
aI16133
aI16134
aI16135
aI16136
aI16139
aI16144
aI16145
aI16147
aI16148
aI16149
aI16150
aI16151
aI16152
aI16153
aI16154
aI16158
aI16159
aI16160
aI16161
aI16162
aI16164
aI16165
aI16166
aI16167
aI16168
aI16169
aI16170
aI16171
aI16172
aI16173
aI16174
aI16175
aI16176
aI16177
aI16178
aI16185
aI16186
aI16187
aI16188
aI16190
aI16191
aI16193
aI16196
aI16203
aI16206
aI16207
aI16211
aI16221
aI16222
aI16224
aI16225
aI16226
aI16228
aI16229
aI16230
aI16233
aI16240
aI16289
aI16290
aI16291
aI16295
aI16304
aI16305
aI16306
aI16307
aI16410
aI16411
aI16413
aI16416
aI16420
aI16421
aI16422
aI16423
aI16429
aI16431
aI16433
aI16434
aI16443
aI16445
aI16449
aI16450
aI16534
aI16535
aI16536
aI16537
aI16538
aI16539
aI16540
aI16541
aI16542
aI16543
aI16544
aI16545
aI16559
aI16564
aI16651
aI16652
aI16666
aI16667
aI16668
aI16669
aI16670
aI16671
aI16673
aI16674
aI16675
aI16678
aI16679
aI16680
aI16765
aI16767
aI16781
aI16782
aI16787
aI16788
aI16793
aI16854
aI16855
aI16856
aI16857
aI16858
aI16859
aI16861
aI16863
aI16864
aI16865
aI16868
aI16870
aI16872
aI16873
aI16886
aI16887
aI16888
aI16889
aI16890
aI16891
aI16892
aI16897
aI16898
aI16901
aI16902
aI16911
aI16915
aI16923
aI16927
aI16928
aI16937
aI16938
aI16939
aI16946
aI16947
aI16948
aI16949
aI16950
aI16951
aI16952
aI16953
aI16954
aI16957
aI16958
aI16959
aI16960
aI16977
aI16978
aI16980
aI16981
aI16984
aI16985
aI16987
aI16988
aI16991
aI16992
aI16993
aI16994
aI16996
aI16997
aI16998
aI16999
aI17000
aI17008
aI17009
aI17010
aI17011
aI17012
aI17013
aI17015
aI17016
aI17017
aI17018
aI17019
aI17020
aI17021
aI17022
aI17023
aI17024
aI17025
aI17026
aI17027
aI17028
aI17050
aI17051
aI17052
aI17053
aI17054
aI17055
aI17056
aI17057
aI17058
aI17059
aI17060
aI17061
aI17125
aI17126
aI17144
aI17145
aI17146
aI17147
aI17148
aI17149
aI17150
aI17151
aI17154
aI17155
aI17156
aI17157
aI17158
aI17159
aI17160
aI17161
aI17162
aI17163
aI17164
aI17165
aI17166
aI17167
aI17168
aI17169
aI17170
aI17171
aI17172
aI17173
aI17174
aI17175
aI17176
aI17177
aI17178
aI17179
aI17180
aI17181
aI17182
aI17183
aI17184
aI17185
aI17186
aI17187
aI17188
aI17189
aI17191
aI17192
aI17193
aI17198
aI17199
aI17203
aI17205
aI17206
aI17207
aI17209
aI17212
aI17216
aI17217
aI17218
aI17219
aI17220
aI17221
aI17224
aI17225
aI17228
aI17232
aI17236
aI17237
aI17241
aI17242
aI17243
aI17244
aI17245
aI17246
aI17249
aI17250
aI17251
aI17255
aI17256
aI17257
aI17261
aI17262
aI17263
aI17273
aI17274
aI17275
aI17282
aI17283
aI17287
aI17288
aI17289
aI17290
aI17309
aI17310
aI17311
aI17324
aI17341
aI17342
aI17343
aI17344
aI17345
aI17346
aI17347
aI17348
aI17349
aI17369
aI17370
aI17372
aI17376
aI17377
aI17378
aI17379
aI17380
aI17381
aI17388
aI17390
aI17391
aI17404
aI17405
aI17406
aI17413
aI17414
aI17415
aI17458
aI17459
aI17460
aI17461
aI17462
aI17463
aI17464
aI17465
aI17466
aI17467
aI17468
aI17469
aI17470
aI17471
aI17473
aI17475
aI17513
aI17515
aI17516
aI17517
aI17518
aI17519
aI17520
aI17521
aI17522
aI17523
aI17524
aI17525
aI17526
aI17527
aI17529
aI17530
aI17531
aI17532
aI17533
aI17534
aI17535
aI17539
aI17540
aI17541
aI17542
aI17543
aI17733
aI17734
aI17735
aI17742
aI17752
aI17753
aI17754
aI17756
aI17757
aI17758
aI17761
aI17762
aI17766
aI17767
aI17768
aI17769
aI17770
aI17771
aI17772
aI17773
aI17774
aI17775
aI17776
aI17777
aI17778
aI17779
aI17780
aI17781
aI17782
aI17783
aI17784
aI17785
aI17786
aI17787
aI17788
aI17789
aI17790
aI17791
aI17792
aI17793
aI17794
aI17795
aI17796
aI17797
aI17798
aI17799
aI17800
aI17801
aI17802
aI17813
aI17824
aI17826
aI17829
aI17830
aI17834
aI17835
aI17849
aI17850
aI17854
aI17855
aI17856
aI17884
aI17887
aI17888
aI17895
aI17896
aI17909
aI17910
aI17929
aI17930
aI17931
aI17932
aI17959
aI17960
aI17990
aI17991
aI17997
aI18001
aI18002
aI18003
aI18010
aI18011
aI18012
aI18025
aI18026
aI18027
aI18028
aI18029
aI18030
aI18040
aI18041
aI18042
aI18043
aI18044
aI18046
aI18047
aI18048
aI18049
aI18050
aI18051
aI18052
aI18053
aI18054
aI18055
aI18056
aI18057
aI18058
aI18059
aI18071
aI18072
aI18074
aI18075
aI18076
aI18077
aI18078
aI18079
aI18080
aI18081
aI18082
aI18083
aI18084
aI18086
aI18087
aI18088
aI18092
aI18093
aI18094
aI18095
aI18096
aI18097
aI18098
aI18099
aI18100
aI18101
aI18103
aI18104
aI18105
aI18106
aI18107
aI18108
aI18109
aI18110
aI18112
aI18113
aI18114
aI18115
aI18116
aI18117
aI18118
aI18119
aI18120
aI18121
aI18122
aI18123
aI18124
aI18125
aI18127
aI18128
aI18129
aI18130
aI18131
aI18132
aI18133
aI18134
aI18135
aI18136
aI18137
aI18138
aI18139
aI18140
aI18141
aI18142
aI18143
aI18145
aI18146
aI18147
aI18148
aI18149
aI18150
aI18164
aI18165
aI18166
aI18167
aI18168
aI18169
aI18170
aI18171
aI18172
aI18173
aI18174
aI18175
aI18176
aI18177
aI18178
aI18179
aI18180
aI18181
aI18182
aI18183
aI18184
aI18185
aI18186
aI18187
aI18188
aI18189
aI18190
aI18191
aI18192
aI18193
aI18194
aI18195
aI18196
aI18241
aI18242
aI18243
aI18247
aI18248
aI18249
aI18250
aI18251
aI18252
aI18253
aI18254
aI18255
aI18256
aI18257
aI18258
aI18259
aI18260
aI18261
aI18262
aI18263
aI18264
aI18265
aI18266
aI18267
aI18268
aI18269
aI18270
aI18271
aI18272
aI18273
aI18274
aI18275
aI18276
aI18290
aI18291
aI18292
aI18293
aI18294
aI18295
aI18296
aI18297
aI18298
aI18299
aI18300
aI18301
aI18302
aI18303
aI18304
aI18313
aI18314
aI18315
aI18316
aI18317
aI18319
aI18320
aI18321
aI18322
aI18323
aI18324
aI18325
aI18326
aI18328
aI18329
aI18331
aI18332
aI18336
aI18337
aI18339
aI18340
aI18342
aI18343
aI18346
aI18348
aI18350
aI18351
aI18353
aI18354
aI18355
aI18356
aI18357
aI18358
aI18359
aI18368
aI18369
aI18370
aI18371
aI18372
aI18377
aI18380
aI18381
aI18382
aI18384
aI18385
aI18386
aI18391
aI18392
aI18393
aI18397
aI18398
aI18399
aI18400
aI18401
aI18402
aI18423
aI18424
aI18425
aI18427
aI18428
aI18429
aI18431
aI18432
aI18433
aI18434
aI18435
aI18436
aI18481
aI18482
aI18483
aI18484
aI18485
aI18486
aI18487
aI18488
aI18489
aI18490
aI18491
aI18492
aI18493
aI18494
aI18498
aI18499
aI18500
aI18501
aI18502
aI18503
aI18530
aI18531
aI18532
aI18533
aI18534
aI18535
aI18536
aI18537
aI18538
aI18539
aI18540
aI18541
aI18542
aI18543
aI18544
aI18545
aI18546
aI18547
aI18548
aI18549
aI18550
aI18551
aI18552
aI18553
aI18554
aI18555
aI18556
aI18557
aI18558
aI18559
aI18560
aI18561
aI18562
aI18563
aI18564
aI18565
aI18566
aI18567
aI18568
aI18569
aI18570
aI18571
aI18572
aI18573
aI18574
aI18575
aI18576
aI18577
aI18578
aI18579
aI18580
aI18581
aI18582
aI18583
aI18584
aI18585
aI18586
aI18587
aI18588
aI18589
aI18590
aI18591
aI18592
aI18593
aI18594
aI18595
aI18596
aI18597
aI18598
aI18599
aI18600
aI18601
aI18602
aI18603
aI18604
aI18605
aI18606
aI18607
aI18611
aI18612
aI18613
aI18614
aI18615
aI18616
aI18617
aI18618
aI18619
aI18620
aI18621
aI18622
aI18623
aI18624
aI18625
aI18626
aI18627
aI18628
aI18629
aI18630
aI18631
aI18632
aI18633
aI18634
aI18635
aI18636
aI18637
aI18638
aI18639
aI18640
aI18641
aI18642
aI18643
aI18644
aI18645
aI18646
aI18647
aI18648
aI18649
aI18650
aI18651
aI18652
aI18653
aI18654
aI18655
aI18656
aI18657
aI18658
aI18659
aI18660
aI18661
aI18662
aI18663
aI18664
aI18665
aI18666
aI18667
aI18692
aI18693
aI18694
aI18698
aI18699
aI18700
aI18701
aI18702
aI18703
aI18707
aI18708
aI18709
aI18710
aI18711
aI18712
aI18713
aI18714
aI18715
aI18716
aI18717
aI18718
aI18719
aI18720
aI18721
aI18722
aI18723
aI18724
aI18728
aI18729
aI18730
aI18734
aI18735
aI18736
aI18737
aI18738
aI18739
aI18740
aI18741
aI18742
aI18746
aI18747
aI18748
aI18749
aI18750
aI18751
aI18752
aI18753
aI18754
aI18755
aI18756
aI18757
aI18761
aI18762
aI18763
aI18764
aI18765
aI18769
aI18770
aI18771
aI18772
aI18776
aI18777
aI18778
aI18779
aI18780
aI18781
aI18782
aI18784
aI18785
aI18787
aI18788
aI18790
aI18791
aI18792
aI18793
aI18794
aI18796
aI18797
aI18799
aI18800
aI18801
aI18802
aI18803
aI18804
aI18836
aI18837
aI18838
aI18845
aI18846
aI18847
aI18848
aI18849
aI18850
aI18851
aI18852
aI18853
aI18854
aI18855
aI18856
aI18857
aI18858
aI18859
aI18860
aI18861
aI18862
aI18863
aI18864
aI18865
aI18866
aI18867
aI18868
aI18869
aI18871
aI18872
aI18874
aI18875
aI18877
aI18878
aI18880
aI18886
aI18887
aI18888
aI18889
aI18890
aI18891
aI18892
aI18893
aI18894
aI18895
aI18896
aI18898
aI18899
aI18900
aI18901
aI18902
aI18903
aI18904
aI18905
aI18906
aI18907
aI18908
aI18909
aI18910
aI18911
aI18915
aI18931
aI18933
aI18934
aI18935
aI19086
aI19089
aI19093
aI19095
aI19104
aI19108
aI19117
aI19118
aI19119
aI19123
aI19222
aI19223
aI19224
aI19226
aI19227
aI19228
aI19230
aI19233
aI19234
aI19238
aI19239
aI19392
aI19393
aI19394
aI19395
aI19396
aI19397
aI19398
aI19399
aI19436
aI19437
aI19438
aI19439
aI19440
aI19442
aI19443
aI19444
aI19445
aI19446
aI19447
aI19448
aI19449
aI19450
aI19451
aI19452
aI19453
aI19454
aI19455
aI19456
aI19457
aI19458
aI19459
aI19460
aI19461
aI19462
aI19463
aI19464
aI19465
aI19467
aI19468
aI19470
aI19471
aI19472
aI19473
aI19474
aI19475
aI19476
aI19477
aI19478
aI19479
aI19480
aI19481
aI19482
aI19483
aI19493
aI19494
aI19495
aI19496
aI19497
aI19498
aI19502
aI19503
aI19504
aI19509
aI19510
aI19511
aI19515
aI19516
aI19518
aI19519
aI19520
aI19522
aI19523
aI19524
aI19525
aI19558
aI19559
aI19560
aI19561
aI19562
aI19566
aI19567
aI19569
aI19570
aI19571
aI19572
aI19573
aI19574
aI19575
aI19576
aI19577
aI19578
aI19579
aI19580
aI19581
aI19582
aI19583
aI19584
aI19585
aI19586
aI19587
aI19588
aI19589
aI19590
aI19591
aI19592
aI19593
aI19594
aI19595
aI19598
aI19599
aI19603
aI19604
aI19605
aI19606
aI19607
aI19608
aI19609
aI19610
aI19611
aI19612
aI19613
aI19614
aI19615
aI19616
aI19617
aI19618
aI19619
aI19620
aI19621
aI19622
aI19623
aI19624
aI19625
aI19626
aI19627
aI19628
aI19629
aI19678
aI19679
aI19687
aI19690
aI19694
aI19695
aI19711
aI19712
aI19713
aI19717
aI19718
aI19719
aI19737
aI19738
aI19740
aI19741
aI19742
aI19743
aI19744
aI19745
aI19747
aI19752
aI19753
aI19754
aI19758
aI19765
aI19766
aI19767
aI19768
aI19769
aI19770
aI19771
aI19772
aI19773
aI19776
aI19778
aI19780
aI19782
aI19783
aI19784
aI19785
aI19812
aI19814
aI19903
aI19904
aI19909
aI19910
aI19914
aI19915
aI19920
aI19921
aI19925
aI19926
aI19931
aI19932
aI19934
aI19936
aI19937
aI19938
aI19948
aI19949
aI19960
aI19961
aI19968
aI19969
aI19972
aI19974
aI19978
aI19985
aI19986
aI19989
aI19994
aI19995
aI19996
aI19997
aI19998
aI19999
aI20004
aI20005
aI20053
aI20054
aI20055
aI20057
aI20060
aI20061
aI20062
aI20063
aI20068
aI20069
aI20070
aI20071
aI20072
aI20073
aI20078
aI20085
aI20086
aI20090
aI20094
aI20095
aI20096
aI20097
aI20099
aI20100
aI20102
aI20103
aI20104
aI20105
aI20109
aI20113
aI20114
aI20115
aI20122
aI20126
aI20127
aI20128
aI20129
aI20130
aI20138
aI20142
aI20149
aI20153
aI20154
aI20156
aI20162
aI20163
aI20164
aI20165
aI20166
aI20167
aI20168
aI20169
aI20170
aI20171
aI20172
aI20173
aI20174
aI20175
aI20176
aI20177
aI20178
aI20179
aI20180
aI20181
aI20182
aI20183
aI20184
aI20185
aI20186
aI20187
aI20188
aI20189
aI20190
aI20191
aI20192
aI20193
aI20194
aI20195
aI20351
aI20352
aI20353
aI20354
aI20379
aI20380
aI20381
aI20382
aI20383
aI20384
aI20386
aI20388
aI20390
aI20391
aI20393
aI20394
aI20395
aI20396
aI20397
aI20398
aI20400
aI20402
aI20404
aI20406
aI20407
aI20410
aI20502
aI20503
aI20504
aI20505
aI20507
aI20509
aI20537
aI20538
aI20540
aI20541
aI20542
aI20543
aI20544
aI20545
aI20546
aI20550
aI20551
aI20552
aI20553
aI20572
aI20573
aI20574
aI20575
aI20576
aI20577
aI20578
aI20579
aI20580
aI20581
aI20582
aI20583
aI20584
aI20585
aI20586
aI20587
aI20588
aI20589
aI20592
aI20593
aI20594
aI20596
aI20597
aI20598
aI20599
aI20600
aI20601
aI20609
aI20610
aI20611
aI20612
aI20613
aI20614
aI20615
aI20616
aI20617
aI20618
aI20619
aI20620
aI20621
aI20622
aI20623
aI20624
aI20625
aI20626
aI20627
aI20628
aI20629
aI20630
aI20631
aI20632
aI20633
aI20634
aI20635
aI20636
aI20637
aI20638
aI20640
aI20641
aI20642
aI20643
aI20644
aI20645
aI20646
aI20647
aI20648
aI20650
aI20651
aI20652
aI20654
aI20655
aI20656
aI20658
aI20659
aI20660
aI20665
aI20666
aI20667
aI20668
aI20669
aI20670
aI20671
aI20672
aI20673
aI20674
aI20675
aI20676
aI20677
aI20678
aI20679
aI20680
aI20681
aI20682
aI20695
aI20696
aI20697
aI20698
aI20699
aI20700
aI20701
aI20702
aI20703
aI20718
aI20719
aI20720
aI20721
aI20722
aI20723
aI20724
aI20725
aI20726
aI20727
aI20728
aI20729
aI20895
aI20897
aI20898
aI20899
aI20900
aI20901
aI20903
aI20904
aI20905
aI20906
aI20907
aI20908
aI20909
aI20910
aI20911
aI20912
aI20913
aI20914
aI20915
aI20924
aI20925
aI20943
aI20944
aI20945
aI20946
aI21079
aI21081
aI21084
aI21089
aI21090
aI21093
aI21097
aI21108
aI21112
aI21144
aI21146
aI21148
aI21151
aI21152
aI21153
aI21154
aI21155
aI21156
aI21158
aI21159
aI21163
aI21170
aI21174
aI21192
aI21193
aI21442
aI21446
aI21494
aI21495
aI21496
aI21497
aI21499
aI21500
aI21529
aI21530
aI21531
aI21532
aI21542
aI21543
aI21544
aI21545
aI21551
aI21552
aI21553
aI21555
aI21652
aI21653
aI21654
aI21656
aI21657
aI21658
aI21664
aI21665
aI21666
aI21671
aI21672
aI21674
aI21676
aI21677
aI21678
aI21726
aI21730
aI21731
aI21732
aI21736
aI21737
aI21738
aI21745
aI21746
aI21747
aI21754
aI21755
aI21756
aI21757
aI21758
aI21759
aI21760
aI21761
aI21762
aI21763
aI21764
aI21765
aI21766
aI21767
aI21768
aI21769
aI21770
aI21771
aI21772
aI21773
aI21774
aI21775
aI21776
aI21787
aI21788
aI21789
aI21800
aI21802
aI21803
aI21879
aI21880
aI21882
aI21892
aI21893
aI21905
aI21906
aI21919
aI21920
aI21923
aI21924
aI21925
aI21926
aI21941
aI21942
aI21948
aI21949
aI21950
aI21951
aI21952
aI21956
aI21957
aI21958
aI21959
aI21962
aI21963
aI21964
aI21965
aI21966
aI21967
aI21968
aI21969
aI21970
aI21971
aI21972
aI21973
aI21974
aI21975
aI21976
aI21977
aI21978
aI21979
aI21980
aI21983
aI21987
aI21990
aI21994
aI21995
aI21996
aI21997
aI21998
aI21999
aI22000
aI22001
aI22002
aI22003
aI22004
aI22005
aI22006
aI22007
aI22008
aI22009
aI22014
aI22015
aI22074
aI22075
aI22076
aI22092
aI22093
aI22094
aI22098
aI22099
aI22100
aI22116
aI22117
aI22118
aI22119
aI22120
aI22121
aI22122
aI22123
aI22124
aI22125
aI22126
aI22127
aI22128
aI22129
aI22130
aI22131
aI22132
aI22133
aI22134
aI22135
aI22136
aI22137
aI22138
aI22139
aI22140
aI22141
aI22142
aI22231
aI22232
aI22233
aI22234
aI22235
aI22236
aI22237
aI22238
aI22239
aI22240
aI22241
aI22243
aI22245
aI22250
aI22251
aI22252
aI22253
aI22254
aI22255
aI22256
aI22257
aI22258
aI22259
aI22260
aI22261
aI22262
aI22263
aI22264
aI22265
aI22266
aI22267
aI22268
aI22269
aI22270
aI22271
aI22272
aI22273
aI22274
aI22275
aI22276
aI22277
aI22278
aI22279
aI22280
aI22282
aI22283
aI22284
aI22285
aI22286
aI22287
aI22288
aI22289
aI22290
aI22291
aI22292
aI22339
aI22340
aI22368
aI22369
aI22370
aI22371
aI22372
aI22373
aI22374
aI22375
aI22376
aI22377
aI22378
aI22379
aI22564
aI22568
aI22571
aI22572
aI22574
aI22666
aI22667
aI22668
aI22669
aI22670
aI22671
aI22672
aI22673
aI22674
aI22675
aI22676
aI22677
aI22685
aI22686
aI22689
aI22690
aI22741
aI22743
aI22847
aI22848
aI22849
aI22850
aI22851
aI22853
aI22854
aI22855
aI22857
aI22858
aI22884
aI22885
aI22886
aI22887
aI22888
aI22889
aI22892
aI22893
aI22894
aI22895
aI22896
aI22897
aI22898
aI22899
aI22900
aI22901
aI22964
aI22965
aI22970
aI22971
aI22975
aI22976
aI23032
aI23033
aI23037
aI23038
aI23039
aI23040
aI23041
aI23042
aI23043
aI23044
aI23045
aI23047
aI23048
aI23049
aI23050
aI23051
aI23052
aI23053
aI23054
aI23060
aI23063
aI23069
aI23076
aI23081
aI23126
aI23146
aI23166
aI23238
aI23239
aI23240
aI23242
aI23243
aI23244
aI23246
aI23247
aI23248
aI23249
aI23250
aI23251
aI23266
aI23267
aI23268
aI23314
aI23315
aI23316
aI23317
aI23318
aI23319
aI23325
aI23326
aI23327
aI23329
aI23330
aI23331
aI23332
aI23333
aI23334
aI23335
aI23336
aI23337
aI23338
aI23339
aI23340
aI23341
aI23342
aI23343
aI23344
aI23345
aI23346
aI23347
aI23348
aI23349
aI23350
aI23351
aI23352
aI23353
aI23354
aI23355
aI23356
aI23357
aI23358
aI23426
aI23427
aI23428
aI23429
aI23430
aI23431
aI23432
aI23433
aI23454
aI23455
aI23463
aI23464
aI23465
aI23466
aI23467
aI23468
aI23469
aI23471
aI23474
aI23475
aI23476
aI23477
aI23478
aI23479
aI23480
aI23600
aI23601
aI23602
aI23607
aI23610
aI23613
aI23623
aI23624
aI23625
aI23628
aI23629
aI23630
aI23676
aI23677
aI23678
aI23679
aI23680
aI23681
aI23682
aI23683
aI23684
aI23685
aI23696
aI23698
aI23699
aI23752
aI23753
aI23754
aI23756
aI23757
aI23758
aI23760
aI23761
aI23762
aI23763
aI23764
aI23765
aI23767
aI23768
aI23769
aI23770
aI23771
aI23772
aI23773
aI23774
aI23775
aI23776
aI23777
aI23778
aI23779
aI23780
aI23781
aI23782
aI23783
aI23784
aI23786
aI23787
aI23788
aI23789
aI23790
aI23791
aI23792
aI23793
aI23794
aI23795
aI23796
aI23797
aI23802
aI23803
aI23804
aI23845
aI23878
aI23879
aI23893
aI23894
aI23895
aI23896
aI23897
aI23898
aI23899
aI23900
aI23901
aI23902
aI23903
aI23904
aI23905
aI23906
aI23907
aI23908
aI23909
aI23910
aI23911
aI23912
aI23913
aI23914
aI23915
aI23916
aI23917
aI23918
aI23919
aI23920
aI23921
aI23922
aI23975
aI23976
aI23977
aI23978
aI23983
aI23984
aI23985
aI23986
aI23987
aI23989
aI23991
aI23996
aI23997
aI23998
aI23999
aI24000
aI24001
aI24002
aI24003
aI24004
aI24005
aI24006
aI24007
aI24053
aI24054
aI24057
aI24058
aI24059
aI24060
aI24181
aI24182
aI24183
aI24184
aI24185
aI24186
aI24187
aI24188
aI24189
aI24190
aI24191
aI24192
aI24193
aI24194
aI24195
aI24259
aI24260
aI24261
aI24262
aI24263
aI24264
aI24265
aI24266
aI24267
aI24268
aI24269
aI24270
aI24271
aI24272
aI24273
aI24274
aI24275
aI24276
aI24277
aI24278
aI24279
aI24280
aI24281
aI24282
aI24283
aI24284
aI24285
aI24286
aI24287
aI24288
aI24306
aI24307
aI24308
aI24336
aI24337
aI24338
aI24339
aI24340
aI24341
aI24342
aI24343
aI24344
aI24345
aI24346
aI24347
aI24348
aI24349
aI24350
aI24408
aI24409
aI24476
aI24477
aI24479
aI24482
aI24483
aI24484
aI24485
aI24486
aI24489
aI24490
aI24491
aI24492
aI24493
aI24494
aI24526
aI24527
aI24528
aI24529
aI24530
aI24531
aI24532
aI24533
aI24534
aI24535
aI24536
aI24537
aI24538
aI24539
aI24540
aI24541
aI24542
aI24543
aI24545
aI24546
aI24547
aI24548
aI24549
aI24550
aI24551
aI24552
aI24553
aI24554
aI24555
aI24556
aI24557
aI24558
aI24559
aI24560
aI24563
aI24564
aI24569
aI24570
aI24573
aI24574
aI24577
aI24578
aI24641
aI24642
aI24643
aI24644
aI24645
aI24646
aI24712
aI24713
aI24715
aI24724
aI24725
aI24726
aI24738
aI24739
aI24740
aI24752
aI24753
aI24755
aI24762
aI24763
aI24764
aI24765
aI24766
aI24767
aI24768
aI24769
aI24770
aI24771
aI24772
aI24773
aI24774
aI24775
aI24776
aI24777
aI24778
aI24779
aI24780
aI24781
aI24782
aI24783
aI24784
aI24785
aI24786
aI24787
aI24788
aI24799
aI24800
aI24801
aI24816
aI24817
aI24818
aI24819
aI24820
aI24821
aI25160
aI25161
aI25267
aI25268
aI25269
aI25270
aI25271
aI25272
aI25280
aI25281
aI25286
aI25287
aI25288
aI25289
aI25290
aI25291
aI25363
aI25364
aI25365
aI25366
aI25367
aI25368
aI25369
aI25370
aI25371
aI25372
aI25373
aI25374
aI25375
aI25376
aI25377
aI25378
aI25379
aI25381
aI25383
aI25384
aI25385
aI25386
aI25387
aI25388
aI25389
aI25390
aI25391
aI25393
aI25394
aI25395
aI25398
aI25399
aI25400
aI25401
aI25407
aI25408
aI25411
aI25413
aI25416
aI25417
aI25420
aI25421
aI25422
aI25423
aI25428
aI25429
aI25430
aI25431
aI25432
aI25433
aI25434
aI25435
aI25436
aI25437
aI25438
aI25439
aI25440
aI25441
aI25496
aI25497
aI25503
aI25505
aI25507
aI25508
aI25571
aI25572
aI25599
aI25600
aI25614
aI25615
aI25616
aI25617
aI25618
aI25619
aI25620
aI25621
aI25622
aI25623
aI25624
aI25625
aI25626
aI25627
aI25628
aI25629
aI25630
aI25631
aI25632
aI25633
aI25634
aI25635
aI25636
aI25637
aI25638
aI25639
aI25640
aI25641
aI25642
aI25643
aI25644
aI25645
aI25648
aI25649
aI25650
aI25651
aI25652
aI25653
aI25654
aI25655
aI25674
aI25675
aI25676
aI25677
aI25678
aI25679
aI25680
aI25681
aI25682
aI25683
aI25684
aI25685
aI25686
aI25687
aI25688
aI25689
aI25690
aI25691
aI25692
aI25693
aI25694
aI25695
aI25696
aI25697
aI25698
aI25699
aI25700
aI25701
aI25702
aI25703
aI25704
aI25705
aI25706
aI25707
aI25708
aI25709
aI25710
aI25711
aI25712
aI25713
aI25714
aI25715
aI25716
aI25717
aI25718
aI25719
aI25720
aI25721
aI25722
aI25723
aI25724
aI25725
aI25726
aI25727
aI25728
aI25729
aI25730
aI25773
aI25774
aI25775
aI25776
aI25846
aI25847
aI25849
aI25851
aI25852
aI25853
aI25859
aI25860
aI25891
aI25920
aI25923
aI25937
aI25938
aI25939
aI25940
aI25941
aI25942
aI25943
aI25944
aI25945
aI25946
aI25947
aI25948
aI26031
aI26032
aI26033
aI26034
aI26042
aI26043
aI26044
aI26045
aI26046
aI26047
aI26048
aI26049
aI26050
aI26051
aI26052
aI26053
aI26054
aI26055
aI26056
aI26057
aI26058
aI26059
aI26060
aI26061
aI26062
aI26063
aI26064
aI26065
aI26066
aI26067
aI26068
aI26069
aI26070
aI26071
aI26072
aI26073
aI26074
aI26075
aI26076
aI26077
aI26078
aI26079
aI26080
aI26081
aI26082
aI26083
aI26084
aI26085
aI26086
aI26087
aI26088
aI26089
aI26090
aI26091
aI26094
aI26095
aI26096
aI26097
aI26106
aI26107
aI26108
aI26109
aI26117
aI26118
aI26119
aI26120
aI26121
aI26122
aI26124
aI26125
aI26143
aI26144
aI26145
aI26146
aI26147
aI26148
aI26149
aI26150
aI26151
aI26152
aI26153
aI26154
aI26155
aI26156
aI26157
aI26158
aI26159
aI26160
aI26161
aI26162
aI26163
aI26164
aI26165
aI26166
aI26167
aI26168
aI26169
aI26170
aI26171
aI26174
aI26175
aI26181
aI26182
aI26183
aI26184
aI26185
aI26186
aI26188
aI26189
aI26204
aI26205
aI26206
aI26207
aI26254
aI26255
aI26264
aI26265
aI26326
aI26327
aI26328
aI26329
aI26337
aI26345
aI26346
aI26347
aI26348
aI26349
aI26350
aI26362
aI26363
aI26364
aI26365
aI26366
aI26367
aI26368
aI26369
aI26370
aI26371
aI26372
aI26373
aI26374
aI26375
aI26385
aI26386
aI26387
aI26388
aI26389
aI26390
aI26391
aI26392
aI26393
aI26394
aI26395
aI26396
aI26397
aI26398
aI26399
aI26400
aI26560
aI26561
aI26628
aI26629
aI26630
aI26631
aI26659
aI26665
aI26666
aI26700
aI26701
aI26702
aI26709
aI26710
aI26711
aI26727
aI26728
aI26729
aI26730
aI26731
aI26732
aI26733
aI26734
aI26735
aI26737
aI26738
aI26739
aI26740
aI26741
aI26742
aI26743
aI26744
aI26745
aI26746
aI26747
aI26748
aI26749
aI26750
aI26751
aI26760
aI26763
aI26765
aI26766
aI26767
aI26769
aI26770
aI26771
aI26772
aI26773
aI26774
aI26775
aI26776
aI26777
aI26786
aI26787
aI26788
aI26793
aI26794
aI26795
aI26904
aI26905
aI26918
aI26919
aI26920
aI26923
aI26924
aI26925
aI26926
aI26927
aI26928
aI26929
aI26930
aI26931
aI26932
aI26933
aI26934
aI26935
aI26936
aI26937
aI26938
aI26939
aI26940
aI26941
aI26942
aI26943
aI26944
aI26945
aI26946
aI26947
aI26953
aI26966
aI26967
aI26968
aI26969
aI26970
aI26971
aI26978
aI26979
aI26980
aI26982
aI26984
aI27145
aI27146
aI27147
aI27149
aI27150
aI27151
aI27155
aI27156
aI27157
aI27161
aI27162
aI27163
aI27166
aI27167
aI27168
aI27170
aI27171
aI27172
aI27177
aI27179
aI27180
aI27181
aI27182
aI27204
aI27205
aI27206
aI27207
aI27260
aI27261
aI27262
aI27263
aI27264
aI27265
aI27266
aI27267
aI27268
aI27269
aI27270
aI27271
aI27272
aI27273
aI27274
aI27275
aI27276
aI27277
aI27281
aI27287
aI27289
aI27290
aI27291
aI27292
aI27293
aI27294
aI27295
aI27303
aI27304
aI27315
aI27316
aI27317
aI27318
aI27319
aI27320
aI27392
aI27394
aI27395
aI27398
aI27399
aI27400
aI27401
aI27402
aI27403
aI27408
aI27409
aI27410
aI27412
aI27413
aI27414
aI27417
aI27418
aI27419
aI27421
aI27422
aI27423
aI27426
aI27427
aI27428
aI27437
aI27438
aI27439
aI27464
aI27465
aI27466
aI27470
aI27471
aI27472
aI27501
aI27502
aI27503
aI27625
aI27626
aI27627
aI27628
aI27629
aI27630
aI27631
aI27632
aI27633
aI27634
aI27635
aI27636
aI27637
aI27638
aI27639
aI27640
aI27641
aI27642
aI27643
aI27644
aI27645
aI27747
aI27748
aI27749
aI27750
aI27751
aI27752
aI27754
aI27755
aI27873
aI27874
aI27899
aI27900
aI27901
aI27902
aI28133
aI28134
aI28135
aI28303
aI28304
aI28305
aI28306
aI28321
aI28322
aI28323
aI28324
aI28804
aI29160
aI29161
aI29168
aI29171
aI29196
aI29197
aI29198
aI29200
aI29382
aI29383
aI29639
aI29640
aI29643
aI29644
aI29650
aI29651
aI29665
aI29666
aI29885
aI29902
aI29905
aI29906
aI29908
aI29909
aI29911
aI29912
aI29915
aI29916
aI30536
aI30537
aI31577
aI31821
aI32092
aI32093
aI32428
aI32429
aI32468
aI32470
aI32788
aI32789
aI32790
aI32791
aI32792
aI32795
aI32796
aI32797
aI32798
aI32799
aI32800
aI32801
aI32802
aI32803
aI32804
aI32805
aI32806
aI32807
aI32808
aI32809
aI32810
aI32811
aI32812
aI32813
aI32814
aI32815
aI32816
aI32817
aI32818
aI32819
aI32820
aI32821
aI32822
aI32823
aI32824
aI32825
aI32826
aI32827
aI32828
aI32829
aI32832
aI32833
aI32834
aI32835
aI32836
aI32837
aI32838
aI32839
aI32840
aI32841
aI32845
aI32846
aI32847
aI32848
aI32849
aI32850
aI32851
aI32852
aI32853
aI32854
aI32857
aI32858
aI32860
aI32861
aI32862
aI32863
aI32864
aI32865
aI32866
aI32867
aI32919
aI33213
aI33214
aI33293
aI33294
aI33295
aI33328
aI33329
aI33339
aI33340
aI33341
aI33342
aI33343
aI33344
aI33345
aI33346
aI33347
aI33348
aI33349
aI33350
aI33351
aI33352
aI33365
aI33366
aI33367
aI33368
aI33369
aI33370
aI33371
aI33372
aI33373
aI33374
aI33375
aI33376
aI33377
aI33378
aI33379
aI33381
aI33382
aI33383
aI33384
aI33385
aI33386
aI33387
aI33388
aI33571
aI33572
aI33573
aI33574
aI33575
aI33576
aI33577
aI33578
aI33579
aI33580
aI33581
aI33582
aI33583
aI33584
aI33585
aI33586
aI33587
aI33588
aI33589
aI33590
aI33591
aI33592
aI33593
aI33594
aI33595
aI33596
aI33914
aI33915
aI33921
aI33922
aI33923
aI33925
aI33929
aI33930
aI33931
aI33932
aI33935
aI33936
aI33943
aI33944
aI33945
aI33946
aI33954
aI33955
aI34027
aI34028
aI34029
aI34030
aI34031
aI34032
aI34033
aI34034
aI34035
aI34036
aI34037
aI34038
aI34039
aI34040
aI34089
aI34090
aI34108
aI34109
aI34110
aI34111
aI34112
aI34113
aI34200
aI34201
aI34204
aI34206
aI34207
aI34208
aI34212
aI34213
aI34366
aI34367
aI34368
aI34369
aI34370
aI34371
aI34372
aI34373
aI34374
aI34375
aI34403
aI34404
aI34405
aI34406
aI34407
aI34408
aI34409
aI34410
aI34411
aI34412
aI34413
aI34414
aI34415
aI34416
aI34417
aI34418
aI34419
aI34420
aI34421
aI34422
aI34423
aI34424
aI34425
aI34426
aI34427
aI34428
aI34429
aI34430
aI34431
aI34432
aI34433
aI34434
aI34435
aI34436
aI34437
aI34438
aI34439
aI34440
aI34442
aI34443
aI34444
aI34445
aI34446
aI34447
aI34448
aI34449
aI34450
aI34451
aI34452
aI34453
aI34454
aI34455
aI34456
aI34457
aI34458
aI34459
aI34460
aI34461
aI34462
aI34463
aI34464
aI34465
aI34466
aI34467
aI34542
aI34543
aI34544
aI34545
aI34546
aI34547
aI34931
aI34933
aI35576
aI35577
aI35582
aI35583
aI35584
aI35585
aI35588
aI35589
aI35591
aI35593
aI35594
aI35595
aI35596
aI35598
aI35610
aI35611
aI35624
aI35625
aI35630
aI35631
aI35635
aI35636
aI35638
aI35639
aI35640
aI35641
aI35642
aI35643
aI35644
aI35645
aI35648
aI35649
aI35650
aI35651
aI35944
aI35946
aI35948
aI35955
aI35957
aI35959
aI36026
aI36027
aI36033
aI36042
aI36044
aI36046
aI36050
aI36054
aI36449
aI36454
aI36637
aI36638
aI36772
aI36773
aI36823
aI36828
aI36838
aI36986
aI36987
aI36988
aI36989
aI36990
aI36991
aI36994
aI36995
aI36996
aI36997
aI36998
aI36999
aI37000
aI37001
aI37002
aI37003
aI37004
aI37005
aI37006
aI37008
aI37009
aI37010
aI37011
aI37012
aI37013
aI37014
aI37015
aI37016
aI37018
aI37019
aI37020
aI37021
aI37022
aI37023
aI37024
aI37025
aI37026
aI37027
aI37028
aI37029
aI37030
aI37031
aI37079
aI37081
aI37260
aI37262
aI37311
aI37327
aI37471
aI37472
aI37473
aI37474
aI37475
aI37476
aI37477
aI37478
aI37479
aI37480
aI37481
aI37482
aI37483
aI37484
aI37485
aI37486
aI37487
aI37488
aI37489
aI37490
aI37491
aI37492
aI37511
aI37888
aI37891
aI37895
aI37900
aI37983
aI37984
aI37985
aI37986
aI37987
aI37988
aI37989
aI37990
aI37991
aI37992
aI37993
aI37994
aI37995
aI37996
aI37997
aI37998
aI37999
aI38000
aI38001
aI38003
aI38005
aI38013
aI38014
aI38015
aI38016
aI38017
aI38018
aI38019
aI38020
aI38021
aI38022
aI38023
aI38024
aI38025
aI38026
aI38027
aI38028
aI38029
aI38030
aI38032
aI38033
aI38040
aI38041
aI38042
aI38043
aI38044
aI38045
aI38046
aI38047
aI38048
aI38049
aI38050
aI38051
aI38052
aI38053
aI38125
aI38126
aI38127
aI38128
aI38129
aI38131
aI38132
aI38140
aI38150
aI38151
aI38153
aI38157
aI38311
aI38312
aI38318
aI38739
aI38740
aI38741
aI38743
aI38744
aI39090
aI39485
aI39486
aI39487
aI39488
aI39489
aI39490
aI39491
aI39492
aI39493
aI39494
aI39495
aI39496
aI39497
aI39498
aI39562
aI39564
aI39581
aI39583
aI39695
aI39728
aI39729
aI39732
aI39733
aI39734
aI39735
aI39736
aI39737
aI39738
aI39739
aI39740
aI39741
aI39940
aI39941
aI39942
aI39943
aI40154
aI40165
aI40166
aI40167
aI40168
aI40169
aI40170
aI40207
aI40208
aI40341
aI40430
aI40436
aI40437
aI40438
aI40807
aI41714
aI41715
aI41719
aI41720
aI42278
aI42279
aI42280
aI42281
aI42282
aI42344
aI42345
aI42346
aI42347
aI42348
aI42349
aI42351
aI42352
aI42353
aI42354
aI42356
aI42357
aI42358
aI42359
aI42360
aI42361
aI42362
aI42368
aI42369
aI42370
aI42371
aI42372
aI42373
aI42374
aI42375
aI42376
aI42377
aI42479
aI42481
aI42483
aI42485
aI42487
aI42489
aI42680
aI42681
aI42682
aI42683
aI42684
aI42686
aI42687
aI42688
aI42691
aI42693
aI42732
aI42733
aI42734
aI42735
aI42736
aI42737
aI42738
aI42739
aI42740
aI42741
aI42743
aI42744
aI42745
aI42746
aI42747
aI42748
aI42750
aI42751
aI42752
aI42753
aI42755
aI42756
aI42757
aI42758
aI42759
aI42760
aI42763
aI42764
aI42766
aI42767
aI42768
aI42769
aI42770
aI42771
aI42773
aI42774
aI42775
aI42776
aI42777
aI42778
aI42779
aI42780
aI42781
aI42782
aI42783
aI42784
aI42785
aI42786
aI42787
aI42788
aI42789
aI42790
aI42811
aI42812
aI43451
aI43452
aI43464
aI43465
aI43466
aI43467
aI43468
aI43517
aI43520
aI43888
aI43889
aI43972
aI43974
aI43980
aI43981
asI50
(lp3
I4306
aI4310
aI4314
aI4315
aI4316
aI4317
aI4324
aI4325
aI4328
aI4329
aI4334
aI4335
aI4341
aI4342
aI4351
aI4352
aI4360
aI4361
aI4362
aI4363
aI4364
aI4365
aI4366
aI4367
aI4368
aI4369
aI4370
aI4371
aI4372
aI4373
aI4374
aI4375
aI4376
aI4377
aI4378
aI4379
aI4380
aI11383
aI11384
aI11385
aI11388
aI11389
aI11390
aI11392
aI11393
aI11394
aI11395
aI11396
aI11397
aI11398
aI11399
aI11400
aI11401
aI11417
aI11418
aI11419
aI11421
aI11423
aI11425
aI11426
aI11427
aI11428
aI11429
aI11430
aI11431
aI11432
aI11433
aI11436
aI11439
aI11443
aI11444
aI11445
aI11449
aI11450
aI11481
aI11482
aI11483
aI11484
aI11485
aI11486
aI11487
aI11488
aI11489
aI11490
aI11491
aI11492
aI11494
aI11497
aI11518
aI11519
aI11520
aI11521
aI11542
aI11543
aI11545
aI11547
aI11548
aI11549
aI11550
aI11551
aI11552
aI11553
aI11554
aI12099
aI12102
aI12105
aI12108
aI12109
aI12110
aI12111
aI12112
aI12113
aI14685
aI14686
aI14687
aI14688
aI14689
aI14690
aI14691
aI14692
aI14693
aI14694
aI14695
aI14696
aI14697
aI14698
aI14699
aI14700
aI14701
aI14702
aI14703
aI14704
aI14705
aI14706
aI14707
aI14708
aI14709
aI14710
aI14711
aI14712
aI14713
aI14714
aI14715
aI14716
aI14717
aI14718
aI14719
aI14720
aI14721
aI14722
aI14723
aI14724
aI14725
aI14726
aI14727
aI14728
aI14729
aI14730
aI14731
aI14732
aI14733
aI14734
aI14735
aI14736
aI14737
aI14738
aI14741
aI14742
aI14743
aI14745
aI14747
aI14749
aI14751
aI14752
aI14753
aI14755
aI14756
aI14757
aI14759
aI14760
aI14761
aI14765
aI14766
aI14767
aI14770
aI14771
aI14772
aI14773
aI14774
aI14775
aI14779
aI14780
aI14781
aI14784
aI14785
aI14786
aI14827
aI14828
aI14829
aI14830
aI14831
aI14832
aI14843
aI14844
aI14845
aI14848
aI14849
aI14850
aI14853
aI14854
aI14855
aI14860
aI14861
aI14862
aI14868
aI14869
aI14870
aI14872
aI14873
aI14874
aI14881
aI14882
aI14883
aI14886
aI14887
aI14889
aI14891
aI14892
aI14893
aI14897
aI14898
aI14899
aI14900
aI14902
aI14903
aI14908
aI14909
aI14910
aI14912
aI14913
aI14914
aI14915
aI14916
aI14917
aI14920
aI14921
aI14922
aI14923
aI14924
aI14925
aI14926
aI14927
aI14928
aI14929
aI14930
aI14931
aI14932
aI14933
aI14934
aI14941
aI14942
aI14943
aI14944
aI14945
aI14946
aI14947
aI14948
aI14949
aI14950
aI14951
aI14952
aI14986
aI14987
aI14989
aI14994
aI14995
aI14996
aI15002
aI15003
aI15004
aI15009
aI15010
aI15011
aI15017
aI15018
aI15019
aI15023
aI15024
aI15025
aI15026
aI15027
aI15028
aI15036
aI15037
aI15038
aI15039
aI15040
aI15041
aI15042
aI15043
aI15045
aI15048
aI15049
aI15050
aI15051
aI15052
aI15053
aI15054
aI15055
aI15056
aI15057
aI15058
aI15059
aI15060
aI15061
aI15062
aI15087
aI15088
aI15089
aI15090
aI15091
aI15092
aI15093
aI15094
aI15095
aI15096
aI15097
aI15098
aI15099
aI15100
aI15101
aI15102
aI15103
aI15104
aI15105
aI15106
aI15107
aI15120
aI15121
aI15122
aI15131
aI15132
aI15133
aI15136
aI15137
aI15138
aI15141
aI15142
aI15143
aI15144
aI15145
aI15146
aI15147
aI15148
aI15149
aI15151
aI15152
aI15154
aI22152
aI22153
aI22154
aI22158
aI22159
aI22220
aI22228
aI22230
aI22242
aI22244
aI27032
aI27033
aI27034
aI27039
aI27520
aI27521
aI27522
aI27529
aI27534
aI28055
aI28245
aI28788
aI28789
aI28919
aI28920
aI29737
aI29738
aI29740
aI29742
aI29745
aI29746
aI29749
aI29750
aI29761
aI29762
aI29763
aI29764
aI29775
aI29776
aI29898
aI30045
aI30052
aI30053
aI30054
aI30055
aI30056
aI30057
aI30058
aI30059
aI30060
aI30061
aI30062
aI30063
aI30125
aI30126
aI30709
aI30762
aI30763
aI30800
aI30813
aI30818
aI30969
aI31010
aI31011
aI31012
aI31021
aI31022
aI31024
aI31076
aI31078
aI31082
aI31088
aI31096
aI31097
aI31348
aI31349
aI31350
aI31352
aI31362
aI32955
aI33101
aI34149
aI34150
aI34217
aI34218
aI34232
aI34321
aI34322
aI42275
aI42603
aI42604
aI42605
aI42606
aI42607
aI42608
aI42609
aI42610
aI42611
aI42612
aI42613
aI42614
aI42615
aI42616
aI42617
aI42618
aI42619
aI42620
aI42621
aI42622
aI42623
aI42624
aI42625
aI42626
aI42627
aI42628
aI42631
aI42890
asI11
(lp4
I29
aI31
aI213
aI299
aI555
aI556
aI1000
aI1001
aI1002
aI1354
aI1355
aI1356
aI1357
aI1358
aI1359
aI1360
aI1361
aI1362
aI1387
aI1388
aI1389
aI1390
aI1391
aI1392
aI1393
aI1394
aI1395
aI1396
aI1397
aI1437
aI1438
aI1439
aI1440
aI1441
aI1442
aI1443
aI1444
aI1550
aI1566
aI1567
aI1901
aI1902
aI1903
aI1904
aI1905
aI1906
aI1907
aI1908
aI1909
aI1910
aI1911
aI1912
aI1913
aI1914
aI1915
aI1916
aI1917
aI1918
aI1981
aI1982
aI1983
aI1984
aI1985
aI1986
aI1987
aI1988
aI1989
aI1990
aI1991
aI1992
aI1993
aI1994
aI1995
aI1996
aI1997
aI1998
aI1999
aI2000
aI2001
aI2002
aI2003
aI2004
aI2005
aI2006
aI2007
aI2008
aI2009
aI2010
aI2011
aI2012
aI2013
aI2014
aI2015
aI2061
aI2062
aI2063
aI2133
aI2149
aI2150
aI2151
aI2152
aI2189
aI2190
aI2191
aI2192
aI2193
aI2194
aI2195
aI2196
aI2197
aI2198
aI2199
aI2200
aI2201
aI2202
aI2203
aI2231
aI2232
aI2234
aI2235
aI2236
aI2237
aI2238
aI2239
aI2240
aI2241
aI2242
aI2243
aI2244
aI2245
aI2246
aI2247
aI2248
aI2249
aI2250
aI2251
aI2252
aI2253
aI2254
aI2267
aI2268
aI2269
aI2270
aI2271
aI2272
aI2273
aI2274
aI2286
aI2287
aI2288
aI2289
aI2290
aI2291
aI2292
aI2293
aI2294
aI2295
aI2296
aI2297
aI2298
aI2299
aI2300
aI2301
aI2302
aI2303
aI2304
aI2305
aI2306
aI2307
aI2308
aI2309
aI2310
aI2311
aI2312
aI2313
aI2314
aI2315
aI2316
aI2317
aI2318
aI2319
aI2320
aI2321
aI2322
aI2323
aI2324
aI2325
aI2326
aI2327
aI2328
aI2329
aI2330
aI2331
aI2332
aI2333
aI2334
aI2335
aI2336
aI2337
aI2338
aI2346
aI2347
aI2348
aI2349
aI2361
aI2362
aI2363
aI2364
aI2365
aI2366
aI2367
aI2368
aI2369
aI2405
aI2406
aI2407
aI2408
aI2409
aI2410
aI2411
aI2412
aI2419
aI2420
aI2421
aI2422
aI2423
aI2424
aI2425
aI2426
aI3403
aI3404
aI3405
aI3436
aI3437
aI3438
aI3451
aI3452
aI3453
aI3463
aI3464
aI3465
aI3466
aI3467
aI3468
aI3770
aI3771
aI3772
aI3793
aI3794
aI3795
aI3796
aI3797
aI3798
aI3856
aI3857
aI3858
aI3860
aI3861
aI3862
aI4084
aI4120
aI4121
aI4122
aI4131
aI4133
aI4134
aI4162
aI4163
aI4164
aI4169
aI4170
aI4171
aI4176
aI4177
aI4178
aI4185
aI4220
aI4221
aI4223
aI4224
aI4225
aI4232
aI4233
aI4234
aI4235
aI4236
aI4237
aI4238
aI4239
aI4268
aI4304
aI4357
aI4659
aI4689
aI4690
aI4691
aI4700
aI5309
aI5310
aI5311
aI5327
aI5328
aI5329
aI5330
aI5332
aI5514
aI5515
aI5760
aI5761
aI5762
aI5763
aI5764
aI5765
aI5766
aI5767
aI5768
aI5769
aI5770
aI5771
aI5772
aI5773
aI5774
aI5775
aI5776
aI5777
aI5778
aI5779
aI5780
aI5781
aI5782
aI5783
aI6312
aI6313
aI6314
aI6315
aI6316
aI6317
aI6318
aI6319
aI6320
aI6421
aI6422
aI6423
aI6425
aI6600
aI6845
aI6846
aI6849
aI6850
aI6851
aI6852
aI6853
aI6860
aI6861
aI6862
aI6863
aI6867
aI6868
aI6869
aI6870
aI7475
aI7476
aI7477
aI7478
aI7479
aI7480
aI7481
aI7482
aI7483
aI7484
aI7487
aI7488
aI7491
aI7492
aI7493
aI7494
aI7497
aI7498
aI7499
aI8135
aI8136
aI8138
aI8140
aI8141
aI8142
aI8143
aI8144
aI8145
aI8146
aI8147
aI8148
aI8150
aI8151
aI8651
aI8652
aI8653
aI8654
aI8655
aI8656
aI8657
aI8658
aI8659
aI8660
aI8661
aI8662
aI8664
aI8668
aI8669
aI8670
aI9603
aI9604
aI9605
aI9606
aI9607
aI9610
aI9611
aI9612
aI9613
aI9620
aI10504
aI10506
aI10512
aI10513
aI10516
aI11530
aI11538
aI11541
aI11544
aI11555
aI11556
aI11557
aI11558
aI11566
aI11567
aI11571
aI11575
aI11578
aI11581
aI11600
aI11610
aI11633
aI11634
aI11635
aI11636
aI11655
aI11656
aI11670
aI11813
aI11924
aI11925
aI11995
aI12095
aI12096
aI12097
aI12098
aI12144
aI12198
aI12251
aI12254
aI12259
aI12264
aI12265
aI12428
aI12433
aI12436
aI12437
aI12438
aI12439
aI12625
aI12626
aI12627
aI12628
aI12634
aI12638
aI12639
aI12641
aI12644
aI12645
aI12646
aI12647
aI12648
aI12649
aI12650
aI12651
aI12653
aI12654
aI12655
aI12660
aI12661
aI12662
aI12666
aI12684
aI12688
aI12690
aI12698
aI12724
aI12725
aI12727
aI12816
aI12869
aI12984
aI13059
aI13060
aI13062
aI13063
aI13065
aI13066
aI13067
aI13068
aI13070
aI13071
aI13074
aI13075
aI13076
aI13078
aI13079
aI13080
aI13082
aI13084
aI13109
aI13110
aI13113
aI13126
aI13127
aI13131
aI13185
aI13189
aI13293
aI13299
aI13366
aI13374
aI13376
aI13378
aI13385
aI13386
aI13387
aI13388
aI13389
aI13390
aI13393
aI13394
aI13397
aI13399
aI13400
aI13401
aI13402
aI13448
aI13449
aI13450
aI13451
aI13452
aI13525
aI13559
aI13593
aI13625
aI13627
aI13628
aI13629
aI13630
aI13631
aI13632
aI13768
aI13771
aI13774
aI13775
aI13776
aI13777
aI13779
aI13780
aI13781
aI13782
aI13783
aI13784
aI13786
aI13813
aI13837
aI13838
aI13839
aI13840
aI13841
aI13842
aI13843
aI13844
aI13845
aI13846
aI13847
aI13848
aI13849
aI13850
aI13851
aI13971
aI13972
aI13975
aI13976
aI13978
aI13979
aI13980
aI14053
aI14054
aI14055
aI14056
aI14057
aI14058
aI14059
aI14060
aI14061
aI14062
aI14063
aI14064
aI14065
aI14066
aI14067
aI14068
aI14069
aI14070
aI14071
aI14072
aI14073
aI14074
aI14075
aI14119
aI14120
aI14121
aI14122
aI14123
aI14124
aI14125
aI14126
aI14127
aI14128
aI14129
aI14130
aI14131
aI14132
aI14133
aI14134
aI14135
aI14137
aI14138
aI14139
aI14140
aI14291
aI14292
aI14293
aI14294
aI14295
aI14296
aI14297
aI14298
aI14299
aI14300
aI14301
aI14302
aI14386
aI14387
aI14411
aI14412
aI14413
aI14414
aI14415
aI14416
aI14417
aI14418
aI14419
aI14420
aI14421
aI14422
aI14453
aI14454
aI14553
aI14554
aI14555
aI14556
aI14557
aI14558
aI14667
aI14668
aI14669
aI14670
aI14671
aI14672
aI14673
aI14674
aI14675
aI14676
aI14677
aI14678
aI14679
aI14680
aI14681
aI14682
aI14683
aI14684
aI14818
aI14819
aI14820
aI14821
aI14822
aI14823
aI14824
aI14825
aI14826
aI15165
aI15166
aI15167
aI15255
aI15256
aI15257
aI15258
aI15259
aI15260
aI15261
aI15262
aI15264
aI15265
aI15267
aI15268
aI15269
aI15270
aI15271
aI15273
aI15276
aI15277
aI15278
aI15279
aI15280
aI15281
aI15282
aI15283
aI15284
aI15285
aI15286
aI15287
aI15288
aI15289
aI15290
aI15291
aI15292
aI15293
aI15387
aI15390
aI15392
aI15393
aI15395
aI15396
aI15533
aI15534
aI16062
aI16065
aI16066
aI16067
aI16337
aI16338
aI16690
aI16778
aI16874
aI16885
aI16963
aI16966
aI16969
aI16970
aI16971
aI16972
aI16974
aI16975
aI16979
aI16982
aI16983
aI16986
aI17001
aI17002
aI17003
aI17004
aI17029
aI17030
aI17031
aI17032
aI17033
aI17034
aI17035
aI17037
aI17038
aI17039
aI17042
aI17214
aI17238
aI17239
aI17240
aI17247
aI17248
aI17258
aI17334
aI17336
aI17337
aI17338
aI17339
aI21898
aI21899
aI21900
aI21901
aI23235
aI23237
aI23245
aI23260
aI23278
aI23291
aI23292
aI23320
aI23321
aI23322
aI23323
aI23324
aI23523
aI23556
aI23564
aI23567
aI23568
aI23570
aI23572
aI23573
aI23574
aI23575
aI23576
aI23579
aI23614
aI23631
aI23662
aI23663
aI23664
aI23665
aI23666
aI23667
aI23668
aI23669
aI23670
aI23671
aI23697
aI23785
aI23799
aI23800
aI23801
aI23805
aI23806
aI23807
aI23808
aI23809
aI23810
aI23811
aI23812
aI23813
aI23818
aI23819
aI23820
aI23821
aI23824
aI23825
aI23826
aI23827
aI23828
aI23829
aI23831
aI23842
aI23843
aI23844
aI23846
aI23847
aI23848
aI23860
aI23861
aI23873
aI23874
aI23880
aI23882
aI23883
aI23884
aI23887
aI23888
aI23889
aI23891
aI23892
aI23924
aI23925
aI23926
aI23927
aI23928
aI23929
aI23930
aI23931
aI23932
aI23933
aI24050
aI24083
aI24093
aI24095
aI24096
aI24097
aI24098
aI24099
aI24108
aI24125
aI24127
aI24134
aI24135
aI24136
aI24137
aI24141
aI24147
aI26582
aI26583
aI26584
aI26585
aI26986
aI27055
aI27060
aI27062
aI27064
aI27066
aI27068
aI27069
aI27070
aI27071
aI27072
aI27073
aI27074
aI27075
aI27076
aI27077
aI27078
aI27079
aI27080
aI27081
aI27082
aI27083
aI27085
aI27086
aI27087
aI27088
aI27101
aI27103
aI27105
aI27106
aI27107
aI27108
aI27109
aI27110
aI27112
aI27113
aI27114
aI27117
aI27118
aI27120
aI27122
aI27125
aI27127
aI27129
aI27131
aI27132
aI27133
aI27134
aI27139
aI27142
aI27144
aI27158
aI27283
aI27411
aI27425
aI27430
aI27431
aI27436
aI27440
aI27441
aI27442
aI27443
aI27444
aI27445
aI27446
aI27447
aI27448
aI27449
aI27450
aI27451
aI27452
aI27453
aI27455
aI27457
aI27458
aI27459
aI27460
aI27461
aI27462
aI27463
aI27467
aI27468
aI27469
aI27473
aI27475
aI27476
aI27480
aI27482
aI27483
aI27485
aI27486
aI27487
aI27489
aI27490
aI27495
aI27496
aI27497
aI27498
aI27565
aI27566
aI27567
aI27568
aI27569
aI27570
aI27572
aI27573
aI27574
aI27579
aI27580
aI27582
aI27583
aI27585
aI27586
aI27587
aI27588
aI27589
aI27590
aI27592
aI27593
aI27595
aI27596
aI27597
aI27598
aI27599
aI27600
aI27601
aI27602
aI27603
aI28053
aI28054
aI28317
aI28357
aI28360
aI28371
aI28372
aI28373
aI28374
aI28375
aI28376
aI28380
aI28382
aI28383
aI28385
aI28386
aI28387
aI28440
aI28444
aI28446
aI28447
aI28448
aI28450
aI28451
aI28452
aI28477
aI28479
aI28480
aI28504
aI28505
aI28506
aI28507
aI28508
aI28509
aI28510
aI28511
aI28512
aI28513
aI28514
aI28515
aI28517
aI28518
aI28523
aI28525
aI28558
aI28559
aI28560
aI28574
aI28583
aI28584
aI28696
aI28697
aI28698
aI28699
aI28700
aI28701
aI28702
aI28703
aI28704
aI28705
aI28717
aI28718
aI28719
aI28726
aI28735
aI28741
aI28842
aI28843
aI28844
aI28845
aI28846
aI28847
aI28848
aI28849
aI28850
aI28852
aI28855
aI28856
aI28857
aI28860
aI28968
aI28970
aI28971
aI28979
aI28980
aI28981
aI28988
aI28989
aI28990
aI29018
aI29019
aI29020
aI29022
aI29025
aI29026
aI29087
aI29091
aI29095
aI29135
aI29136
aI29137
aI29138
aI29139
aI29140
aI29142
aI29143
aI29144
aI29148
aI29149
aI29150
aI29151
aI29152
aI29155
aI29175
aI29181
aI29191
aI29199
aI29201
aI29205
aI29206
aI29208
aI29291
aI29292
aI29293
aI29294
aI29295
aI29296
aI29297
aI29298
aI29299
aI29300
aI29310
aI29311
aI29312
aI29367
aI29370
aI29375
aI29376
aI29469
aI29470
aI29471
aI29475
aI29478
aI29479
aI29480
aI29490
aI29491
aI29492
aI29514
aI29591
aI29596
aI29601
aI29602
aI29603
aI29604
aI29645
aI29646
aI29648
aI29649
aI29652
aI29653
aI29655
aI29656
aI29657
aI29658
aI29659
aI29660
aI29661
aI29662
aI29783
aI29784
aI29843
aI29844
aI29873
aI29874
aI29875
aI29879
aI29880
aI29881
aI29882
aI29883
aI29884
aI29886
aI29969
aI29970
aI29971
aI29972
aI29973
aI29974
aI29975
aI29976
aI29977
aI29983
aI29986
aI29989
aI29992
aI30009
aI30010
aI30014
aI30022
aI30024
aI30028
aI30289
aI30290
aI30291
aI30292
aI30293
aI30294
aI30295
aI30296
aI30298
aI30301
aI30302
aI30306
aI30307
aI30309
aI30310
aI30311
aI30312
aI30313
aI30314
aI30315
aI30316
aI30317
aI30318
aI30319
aI30332
aI30333
aI30334
aI30335
aI30336
aI30337
aI30346
aI30348
aI30389
aI30390
aI30391
aI30392
aI30393
aI30394
aI30395
aI30396
aI30397
aI30400
aI30403
aI30405
aI30406
aI30407
aI30408
aI30420
aI30421
aI30424
aI30425
aI30431
aI30432
aI30436
aI30437
aI30438
aI30439
aI30441
aI30442
aI30443
aI30454
aI30455
aI30456
aI30457
aI30466
aI30467
aI30468
aI30469
aI30470
aI30472
aI30487
aI30489
aI30490
aI30491
aI30492
aI30493
aI30494
aI30495
aI30788
aI30789
aI30791
aI30792
aI30793
aI30794
aI30795
aI30799
aI30850
aI30851
aI30852
aI30853
aI30854
aI30855
aI30857
aI30858
aI30859
aI30860
aI30861
aI30862
aI30863
aI30867
aI30876
aI30880
aI30884
aI30885
aI30889
aI30890
aI30891
aI30949
aI30954
aI30956
aI30957
aI30968
aI31110
aI31111
aI31113
aI31114
aI31122
aI31125
aI31127
aI31128
aI31130
aI31131
aI31132
aI31133
aI31134
aI31137
aI31139
aI31141
aI31170
aI31242
aI31250
aI31264
aI31265
aI31266
aI31268
aI31269
aI31271
aI31272
aI31274
aI31276
aI31300
aI31301
aI31302
aI31311
aI31321
aI31322
aI31323
aI31330
aI31334
aI31335
aI31336
aI31495
aI31496
aI31497
aI31498
aI31499
aI31500
aI31501
aI31502
aI31503
aI31504
aI31505
aI31506
aI31507
aI31508
aI31509
aI31510
aI31511
aI31512
aI31516
aI31517
aI31518
aI31519
aI31520
aI31523
aI31524
aI31525
aI31528
aI31529
aI31533
aI31534
aI31535
aI31536
aI31537
aI31538
aI31539
aI31540
aI31541
aI31542
aI31574
aI31576
aI31578
aI31591
aI31592
aI31608
aI31610
aI31612
aI31613
aI31614
aI31615
aI31617
aI31618
aI31619
aI31621
aI31625
aI31626
aI31627
aI31628
aI31629
aI31630
aI31736
aI31737
aI31744
aI31752
aI31754
aI31766
aI31767
aI31785
aI31786
aI31787
aI31808
aI31809
aI31810
aI31828
aI31829
aI31831
aI31832
aI31833
aI31835
aI31836
aI31839
aI31903
aI31907
aI31928
aI31929
aI31943
aI31945
aI31947
aI31948
aI31949
aI31950
aI31961
aI31963
aI31964
aI32417
aI32418
aI32419
aI32420
aI32421
aI32422
aI32423
aI32424
aI32425
aI32426
aI32427
aI32430
aI32431
aI32432
aI32433
aI32434
aI32437
aI32438
aI32439
aI32440
aI32441
aI32442
aI32443
aI32486
aI32488
aI32495
aI32510
aI32512
aI32518
aI32519
aI32522
aI32523
aI32775
aI32776
aI32777
aI32883
aI32884
aI32894
aI32895
aI32896
aI32899
aI32900
aI32901
aI32902
aI32903
aI32911
aI32912
aI32913
aI32914
aI32915
aI32916
aI32917
aI32918
aI32920
aI32921
aI32977
aI32983
aI32985
aI32986
aI32987
aI32988
aI32989
aI32990
aI32991
aI32992
aI32993
aI32994
aI32995
aI32996
aI32997
aI32998
aI32999
aI33000
aI33001
aI33027
aI33028
aI33032
aI33040
aI33046
aI33047
aI33120
aI33121
aI33122
aI33123
aI33124
aI33186
aI33187
aI33188
aI33189
aI33190
aI33191
aI33206
aI33215
aI33216
aI33217
aI33218
aI33219
aI33220
aI33221
aI33222
aI33223
aI33224
aI33239
aI33240
aI33241
aI33242
aI33245
aI33246
aI33247
aI33248
aI33249
aI33250
aI33251
aI33252
aI33253
aI33254
aI33255
aI33256
aI33257
aI33258
aI33259
aI33260
aI33261
aI33263
aI33264
aI33266
aI33267
aI33278
aI33279
aI33280
aI33281
aI33282
aI33283
aI33284
aI33285
aI33286
aI33287
aI33288
aI33289
aI33296
aI33297
aI33298
aI33299
aI33300
aI33301
aI33302
aI33311
aI33312
aI33313
aI33314
aI33315
aI33316
aI33317
aI33319
aI33320
aI33330
aI33331
aI33334
aI33335
aI33336
aI33337
aI33338
aI33353
aI33354
aI33355
aI33356
aI33357
aI33358
aI33359
aI33360
aI33361
aI33362
aI33363
aI33364
aI33390
aI33391
aI33392
aI33393
aI33394
aI33395
aI33399
aI33404
aI33405
aI33406
aI33407
aI33408
aI33409
aI33410
aI33413
aI33414
aI33415
aI33416
aI33419
aI33420
aI33421
aI33422
aI33508
aI33509
aI33510
aI33511
aI33512
aI33513
aI33514
aI33515
aI33516
aI33517
aI33519
aI33520
aI33521
aI33522
aI33523
aI33524
aI33527
aI33528
aI33529
aI33530
aI33533
aI33534
aI33536
aI33566
aI33599
aI33600
aI33601
aI33602
aI33603
aI33606
aI33607
aI33617
aI33618
aI33619
aI33622
aI33633
aI33634
aI33635
aI33636
aI33637
aI33638
aI33639
aI33640
aI33641
aI33642
aI33643
aI33644
aI33645
aI33646
aI33647
aI33656
aI33657
aI33661
aI33670
aI33672
aI33673
aI33675
aI33676
aI33688
aI33689
aI33690
aI33691
aI33695
aI33696
aI33697
aI33698
aI33699
aI33700
aI33701
aI33702
aI33703
aI33704
aI33706
aI33707
aI33709
aI33711
aI33712
aI33713
aI33715
aI33717
aI33723
aI33725
aI33729
aI33730
aI33734
aI33736
aI33737
aI33739
aI33741
aI33742
aI33745
aI33746
aI33747
aI33750
aI33751
aI33754
aI33759
aI33760
aI33761
aI33762
aI33763
aI33764
aI33765
aI33766
aI33767
aI33768
aI33769
aI33785
aI33786
aI33787
aI33788
aI33789
aI33790
aI33791
aI33794
aI33795
aI33796
aI33797
aI33798
aI33800
aI33802
aI33827
aI33828
aI33829
aI33830
aI33831
aI33832
aI33837
aI33838
aI33839
aI33840
aI33841
aI33847
aI33848
aI33849
aI33850
aI33851
aI33852
aI33853
aI33854
aI33855
aI33856
aI33857
aI33858
aI33859
aI33860
aI33861
aI33862
aI33863
aI33864
aI33865
aI33866
aI33867
aI33868
aI33869
aI33873
aI33874
aI33878
aI33879
aI33881
aI33882
aI33883
aI33884
aI33887
aI33888
aI33889
aI33890
aI33901
aI33902
aI33903
aI33904
aI33912
aI33913
aI33916
aI33917
aI33918
aI33920
aI33924
aI33926
aI33933
aI33934
aI33937
aI33938
aI33939
aI33940
aI33947
aI33948
aI33949
aI33950
aI33951
aI33952
aI33953
aI33956
aI33957
aI33958
aI33959
aI33960
aI33963
aI33975
aI33976
aI33977
aI33978
aI33983
aI33984
aI33985
aI33986
aI33987
aI33988
aI33991
aI33992
aI33993
aI33994
aI33995
aI33999
aI34000
aI34002
aI34004
aI34005
aI34006
aI34009
aI34010
aI34011
aI34022
aI34023
aI34024
aI34026
aI34072
aI34073
aI34074
aI34075
aI34076
aI34077
aI34078
aI34079
aI34082
aI34083
aI34084
aI34215
aI34216
aI34219
aI34220
aI34221
aI34222
aI34223
aI34224
aI34225
aI34226
aI34227
aI34228
aI34229
aI34234
aI34235
aI34236
aI34237
aI34238
aI34239
aI34240
aI34241
aI34242
aI34243
aI34244
aI34245
aI34248
aI34249
aI34271
aI34272
aI34273
aI34274
aI34275
aI34277
aI34278
aI34279
aI34280
aI34281
aI34282
aI34283
aI34284
aI34285
aI34286
aI34287
aI34288
aI34289
aI34290
aI34291
aI34292
aI34293
aI34294
aI34295
aI34296
aI34297
aI34298
aI34299
aI34300
aI34301
aI34302
aI34303
aI34304
aI34305
aI34306
aI34307
aI34309
aI34310
aI34317
aI34318
aI34319
aI34320
aI34603
aI34604
aI34605
aI34606
aI34607
aI34608
aI34609
aI34610
aI34611
aI34612
aI34613
aI34614
aI34615
aI34616
aI34617
aI34618
aI34620
aI34621
aI34622
aI34623
aI34626
aI34627
aI34628
aI34629
aI34631
aI34632
aI34633
aI34635
aI34641
aI34642
aI34644
aI34645
aI34648
aI34649
aI34650
aI34651
aI34652
aI34653
aI34655
aI34657
aI34658
aI34659
aI34662
aI34665
aI34666
aI34673
aI34676
aI34711
aI34715
aI34716
aI34717
aI34722
aI34724
aI34740
aI34741
aI34742
aI34746
aI34748
aI34753
aI34836
aI34842
aI34856
aI34861
aI34873
aI34902
aI34903
aI34904
aI34905
aI34906
aI34907
aI34908
aI34909
aI34910
aI34911
aI34912
aI34913
aI34914
aI34915
aI34916
aI34917
aI35359
aI35360
aI35361
aI35362
aI35363
aI35364
aI35370
aI35372
aI35379
aI35380
aI35382
aI35383
aI35384
aI35390
aI35394
aI35395
aI35398
aI35426
aI35427
aI35428
aI35429
aI35436
aI35437
aI35438
aI35439
aI35440
aI35441
aI35442
aI35443
aI35444
aI35445
aI35496
aI35497
aI35498
aI35501
aI35504
aI35505
aI35555
aI35788
aI35789
aI35790
aI35791
aI35792
aI35793
aI35794
aI35795
aI35796
aI35797
aI35798
aI35799
aI35800
aI35801
aI35802
aI35803
aI35804
aI35806
aI35809
aI35810
aI35811
aI35812
aI35813
aI35814
aI35816
aI35817
aI35818
aI35820
aI35821
aI35824
aI35825
aI35826
aI35827
aI35828
aI35829
aI35830
aI35831
aI35832
aI35834
aI35836
aI35837
aI35838
aI35839
aI35840
aI35841
aI35842
aI35843
aI35844
aI35845
aI35846
aI35847
aI35848
aI35849
aI35850
aI35851
aI35852
aI35853
aI35854
aI35855
aI35856
aI35859
aI35860
aI35861
aI35862
aI35863
aI35864
aI35865
aI35866
aI35867
aI35868
aI35869
aI35870
aI35871
aI35872
aI35873
aI35874
aI35875
aI35876
aI35877
aI35878
aI35881
aI35904
aI35905
aI35906
aI35907
aI35908
aI35909
aI35910
aI35911
aI35914
aI35915
aI35916
aI35917
aI35918
aI35919
aI35920
aI35921
aI35922
aI35925
aI35927
aI35928
aI35929
aI35931
aI35932
aI35933
aI35934
aI35935
aI35936
aI35937
aI35938
aI35939
aI35940
aI35941
aI35942
aI35963
aI35964
aI35965
aI35966
aI35967
aI35968
aI35969
aI35970
aI35971
aI35972
aI35984
aI35985
aI35994
aI35997
aI35998
aI35999
aI36000
aI36001
aI36002
aI36003
aI36004
aI36005
aI36018
aI36021
aI36127
aI36136
aI36157
aI36163
aI36170
aI36179
aI36202
aI36209
aI36230
aI36262
aI36266
aI36268
aI36298
aI36302
aI36307
aI36327
aI36334
aI36336
aI36338
aI36351
aI36354
aI36364
aI36370
aI36393
aI36665
aI36666
aI36667
aI36668
aI36669
aI36670
aI36671
aI36672
aI36673
aI36682
aI36683
aI36686
aI36687
aI36688
aI36692
aI36694
aI36697
aI36698
aI36701
aI36707
aI36710
aI36820
aI36821
aI36822
aI36825
aI36826
aI36827
aI36830
aI36833
aI36835
aI36840
aI36843
aI36846
aI36851
aI36852
aI36877
aI36878
aI36879
aI36880
aI36881
aI36882
aI36883
aI36884
aI36885
aI36886
aI36887
aI36888
aI36889
aI36890
aI36891
aI36892
aI36893
aI36894
aI36895
aI36896
aI36897
aI36898
aI36899
aI36900
aI36901
aI36902
aI36903
aI36904
aI36905
aI36906
aI36908
aI36909
aI36910
aI36911
aI36912
aI36913
aI36914
aI36915
aI36916
aI36917
aI36918
aI36919
aI36920
aI36921
aI36922
aI36923
aI36924
aI36925
aI36926
aI36927
aI36930
aI36931
aI36932
aI36933
aI36934
aI36936
aI36938
aI36939
aI36941
aI36943
aI36945
aI36947
aI36948
aI36951
aI36952
aI36953
aI36954
aI36955
aI36956
aI36965
aI36966
aI36967
aI36968
aI36969
aI36970
aI36971
aI36972
aI36973
aI36977
aI36978
aI36979
aI36980
aI36983
aI36984
aI36985
aI37052
aI37053
aI37060
aI37061
aI37062
aI37063
aI37064
aI37067
aI37069
aI37074
aI37075
aI37076
aI37077
aI37078
aI37080
aI37082
aI37083
aI37084
aI37187
aI37188
aI37189
aI37190
aI37191
aI37192
aI37193
aI37194
aI37195
aI37196
aI37197
aI37198
aI37199
aI37200
aI37201
aI37202
aI37203
aI37204
aI37205
aI37206
aI37207
aI37208
aI37209
aI37210
aI37211
aI37212
aI37213
aI37214
aI37215
aI37216
aI37217
aI37218
aI37219
aI37221
aI37222
aI37223
aI37224
aI37225
aI37226
aI37227
aI37228
aI37229
aI37230
aI37231
aI37232
aI37233
aI37234
aI37235
aI37236
aI37237
aI37238
aI37239
aI37240
aI37241
aI37242
aI37243
aI37244
aI37245
aI37247
aI37248
aI37249
aI37250
aI37254
aI37255
aI37280
aI37281
aI37282
aI37283
aI37284
aI37285
aI37288
aI37289
aI37290
aI37291
aI37292
aI37293
aI37294
aI37297
aI37298
aI37299
aI37300
aI37301
aI37302
aI37303
aI37304
aI37305
aI37306
aI37307
aI37308
aI37309
aI37330
aI37331
aI37332
aI37333
aI37334
aI37335
aI37336
aI37337
aI37338
aI37339
aI37340
aI37347
aI37350
aI37352
aI37353
aI37354
aI37355
aI37356
aI37357
aI37358
aI37360
aI37362
aI37365
aI37368
aI37369
aI37373
aI37374
aI37375
aI37376
aI37379
aI37435
aI37436
aI37437
aI37438
aI37439
aI37440
aI37441
aI37443
aI37447
aI37448
aI37449
aI37450
aI37451
aI37452
aI37453
aI37454
aI37455
aI37456
aI37457
aI37458
aI37459
aI37460
aI37461
aI37462
aI37463
aI37464
aI37465
aI37466
aI37467
aI37468
aI37523
aI37524
aI37537
aI37538
aI37539
aI37540
aI37541
aI37542
aI37543
aI37544
aI37545
aI37549
aI37550
aI37551
aI37560
aI37561
aI37562
aI37563
aI37564
aI37565
aI37566
aI37568
aI37569
aI37571
aI37572
aI37573
aI37574
aI37575
aI37576
aI37577
aI37626
aI37627
aI37628
aI37629
aI37630
aI37631
aI37632
aI37633
aI37634
aI37635
aI37636
aI37637
aI37638
aI37639
aI37640
aI37641
aI37642
aI37643
aI37644
aI37647
aI37648
aI37651
aI37652
aI37653
aI37654
aI37655
aI37656
aI37657
aI37658
aI37659
aI37660
aI37661
aI37663
aI37664
aI37666
aI37667
aI37669
aI37670
aI37671
aI37672
aI37719
aI37720
aI37721
aI37722
aI37723
aI37724
aI37725
aI37726
aI37727
aI37919
aI37921
aI37922
aI37924
aI37926
aI37927
aI37929
aI37930
aI37931
aI37932
aI37933
aI37934
aI37935
aI37936
aI37937
aI37938
aI37939
aI37941
aI37942
aI37944
aI37945
aI37946
aI37948
aI37949
aI37950
aI37951
aI37952
aI37953
aI37958
aI37959
aI37960
aI37961
aI37962
aI37963
aI37964
aI37965
aI37966
aI37967
aI37968
aI37969
aI37970
aI37971
aI37972
aI37973
aI38059
aI38061
aI38063
aI38064
aI38065
aI38066
aI38067
aI38073
aI38074
aI38075
aI38076
aI38077
aI38079
aI38080
aI38083
aI38085
aI38086
aI38087
aI38088
aI38089
aI38090
aI38091
aI38092
aI38093
aI38094
aI38095
aI38096
aI38097
aI38098
aI38100
aI38101
aI38102
aI38103
aI38105
aI38106
aI38107
aI38108
aI38109
aI38110
aI38111
aI38112
aI38113
aI38115
aI38116
aI38117
aI38120
aI38169
aI38170
aI38171
aI38172
aI38174
aI38175
aI38176
aI38177
aI38178
aI38179
aI38180
aI38181
aI38182
aI38183
aI38184
aI38185
aI38186
aI38187
aI38188
aI38189
aI38190
aI38191
aI38192
aI38193
aI38194
aI38260
aI38261
aI38262
aI38263
aI38264
aI38265
aI38266
aI38267
aI38268
aI38269
aI38270
aI38271
aI38272
aI38273
aI38274
aI38275
aI38276
aI38277
aI38278
aI38279
aI38280
aI38281
aI38282
aI38283
aI38284
aI38285
aI38286
aI38287
aI38288
aI38289
aI38308
aI38309
aI38310
aI38463
aI38464
aI38465
aI38466
aI38467
aI38469
aI38471
aI38472
aI38475
aI38476
aI38479
aI38480
aI38481
aI38484
aI38485
aI38486
aI38487
aI38488
aI38489
aI38490
aI38491
aI38492
aI38493
aI38494
aI38495
aI38496
aI38497
aI38499
aI38500
aI38503
aI38504
aI38505
aI38506
aI38630
aI38635
aI38636
aI38637
aI38638
aI38642
aI38643
aI38647
aI38652
aI38653
aI38654
aI38669
aI38674
aI38675
aI38679
aI38680
aI38687
aI38688
aI38692
aI38693
aI38697
aI38698
aI38715
aI38720
aI38721
aI38722
aI38723
aI38727
aI38728
aI38729
aI38730
aI38737
aI38756
aI38757
aI38767
aI38768
aI38770
aI38771
aI38772
aI38773
aI38787
aI38788
aI38789
aI38790
aI38791
aI38824
aI38825
aI38826
aI38827
aI38828
aI38829
aI38830
aI38831
aI38832
aI38833
aI38834
aI38835
aI38836
aI38837
aI38838
aI38839
aI38840
aI38841
aI38847
aI38848
aI38877
aI38878
aI38879
aI38880
aI38881
aI38882
aI38883
aI38884
aI38885
aI38886
aI38887
aI38888
aI38889
aI38890
aI38891
aI38892
aI38893
aI38894
aI39082
aI39083
aI39086
aI39087
aI39088
aI39091
aI39092
aI39093
aI39094
aI39095
aI39096
aI39636
aI39638
aI39645
aI39646
aI39647
aI39650
aI39651
aI39654
aI39655
aI39681
aI39686
aI39687
aI39688
aI39692
aI39708
aI39744
aI39745
aI39746
aI39747
aI39748
aI39749
aI39750
aI39751
aI39752
aI39754
aI39800
aI39801
aI39802
aI39803
aI39804
aI39805
aI39806
aI39807
aI39808
aI39809
aI39810
aI39811
aI39812
aI39813
aI39814
aI39816
aI39817
aI39818
aI39819
aI39820
aI39821
aI39822
aI39823
aI39824
aI39852
aI39853
aI39854
aI39855
aI39856
aI39857
aI39858
aI39859
aI39860
aI39861
aI39862
aI39863
aI39864
aI39865
aI39866
aI39867
aI39868
aI39869
aI39870
aI39871
aI39876
aI39877
aI39878
aI39879
aI39880
aI39881
aI39882
aI39883
aI39885
aI39886
aI39887
aI39888
aI39889
aI39890
aI39903
aI39904
aI39905
aI39906
aI39907
aI39908
aI39909
aI39910
aI39911
aI39912
aI39913
aI39914
aI39915
aI39916
aI39917
aI39918
aI39919
aI39920
aI39921
aI39922
aI39923
aI39924
aI39925
aI39926
aI39927
aI39928
aI39929
aI39930
aI39931
aI40016
aI40017
aI40018
aI40019
aI40024
aI40028
aI40064
aI40118
aI40119
aI40120
aI40121
aI40122
aI40123
aI40124
aI40125
aI40126
aI40127
aI40128
aI40129
aI40130
aI40131
aI40132
aI40133
aI40134
aI40135
aI40136
aI40137
aI40138
aI40139
aI40140
aI40141
aI40142
aI40144
aI40145
aI40146
aI40147
aI40148
aI40149
aI40150
aI40152
aI40198
aI40199
aI40200
aI40203
aI40204
aI40256
aI40339
aI40340
aI40342
aI40344
aI40346
aI40347
aI40348
aI40349
aI40350
aI40351
aI40352
aI40353
aI40354
aI40355
aI40356
aI40357
aI40358
aI40359
aI40360
aI40432
aI40434
aI40435
aI40456
aI40458
aI40462
aI40466
aI40467
aI40469
aI40473
aI40478
aI40479
aI40482
aI40484
aI40485
aI40486
aI40487
aI40488
aI40489
aI40490
aI40491
aI40494
aI40549
aI40550
aI40552
aI40553
aI40554
aI40555
aI40556
aI40557
aI40558
aI40559
aI40560
aI40561
aI40562
aI40563
aI40564
aI40565
aI40653
aI40654
aI40655
aI40658
aI40659
aI40660
aI40663
aI40664
aI40665
aI40666
aI40669
aI40670
aI40671
aI40672
aI40673
aI41147
aI41148
aI41149
aI41150
aI41151
aI41152
aI41153
aI41154
aI41155
aI41157
aI41158
aI41161
aI41162
aI41163
aI41164
aI41165
aI41166
aI41167
aI41168
aI41169
aI41170
aI41171
aI41173
aI41174
aI41175
aI41176
aI41273
aI41274
aI41275
aI41276
aI41277
aI41278
aI41279
aI41280
aI41281
aI41282
aI41283
aI41284
aI41285
aI41286
aI41287
aI41288
aI41289
aI41290
aI41291
aI41292
aI42233
aI42234
aI42235
aI42236
aI42237
aI42238
aI42239
aI42240
aI42241
aI42242
aI42243
aI42244
aI42245
aI42246
aI42247
aI42248
aI42249
aI42378
aI42379
aI42380
aI42381
aI42382
aI42383
aI42384
aI42385
aI42386
aI42387
aI42388
aI42390
aI42391
aI42392
aI42506
aI42507
aI42508
aI42509
aI42510
aI42511
aI42512
aI42514
aI42515
aI42517
aI42518
aI42519
aI42520
aI42521
aI42522
aI42523
aI42524
aI42525
aI43165
aI43166
aI43167
aI43168
aI43169
aI43198
aI43199
aI43200
aI43201
aI43202
aI43203
aI43204
aI43205
aI43206
aI43207
aI43208
aI43209
aI43210
aI43211
aI43212
aI43213
aI43214
aI43215
aI43277
aI43278
aI43279
aI43280
aI43281
aI43282
aI43283
aI43284
aI43285
aI43286
aI43287
aI43288
aI43289
aI43290
aI43291
aI43292
aI43294
aI43306
aI43307
aI43308
aI43309
aI43310
aI43311
aI43312
aI43313
aI43314
aI43317
aI43321
aI43322
aI43323
aI43324
aI43325
aI43328
aI43332
aI43843
aI43844
aI43845
aI43846
aI43847
aI43849
aI43850
aI43851
aI43852
aI43853
aI43854
aI43855
aI43856
aI43857
aI43858
aI43859
aI43860
aI43861
aI43862
aI43863
aI43864
aI43865
asI31
(lp5
I1875
aI1877
aI1883
as.